 ICSStream

 Timestamp is 478c445e (Tue Jan 15 14:27:58 2008)

 Preferred load address is 10000000

 Start         Length     Name                   Class
 0001:00000000 0002a29aH .text                   CODE
 0001:0002a2a0 000032eaH .text$x                 CODE
 0002:00000000 000004a8H .idata$5                DATA
 0002:000004a8 00005de4H .rdata                  DATA
 0002:00006290 000000c4H .rdata$r                DATA
 0002:00006358 00003ba0H .xdata$x                DATA
 0002:00009ef8 0000012cH .idata$2                DATA
 0002:0000a024 00000014H .idata$3                DATA
 0002:0000a038 000004a8H .idata$4                DATA
 0002:0000a4e0 00000bbaH .idata$6                DATA
 0002:0000b0a0 000000a5H .edata                  DATA
 0003:00000000 0000151cH .data                   DATA
 0003:00001520 00001b54H .bss                    DATA
 0004:00000000 00000004H .CRT$XCL                DATA
 0004:00000004 00000014H .CRT$XCU                DATA
 0005:00000000 0000000cH .rodata                 DATA
 0006:00000000 000004f0H .rsrc$01                DATA
 0006:000004f0 000063b0H .rsrc$02                DATA

  Address         Publics by Value              Rva+Base     Lib:Object

 0001:00000000       _decode_adpcm              10001000 f   audioutil.obj
 0001:00000110       _Base64decode_len          10001110 f   base64.obj
 0001:00000140       _Base64decode              10001140 f   base64.obj
 0001:00000270       _Base64encode_len          10001270 f   base64.obj
 0001:00000290       _Base64encode              10001290 f   base64.obj
 0001:000003a0       _Base64encoded_len         100013a0 f   base64.obj
 0001:000003c0       ??0ComError@@QAE@JPBD@Z    100013c0 f   ComError.obj
 0001:000003f0       ??_EComError@@UAEPAXI@Z    100013f0 f i ComError.obj
 0001:000003f0       ??_GComError@@UAEPAXI@Z    100013f0 f i ComError.obj
 0001:00000410       ??1ComError@@UAE@XZ        10001410 f   ComError.obj
 0001:00000420       ??0CConfigManager@@QAE@PBDW4TargetType@SdpInfo@@00PAVHttpAgent@@HHH@Z 10001420 f   ConfigManager.obj
 0001:000004e0       ??_ECConfigManager@@UAEPAXI@Z 100014e0 f i ConfigManager.obj
 0001:000004e0       ??_GCConfigManager@@UAEPAXI@Z 100014e0 f i ConfigManager.obj
 0001:00000500       ??1CConfigManager@@UAE@XZ  10001500 f   ConfigManager.obj
 0001:000005a0       ?send_set_command@CConfigManager@@IAEXPBD0@Z 100015a0 f   ConfigManager.obj
 0001:000005d0       ?send_get_command@CConfigManager@@IAE?AVCString@@PBD@Z 100015d0 f   ConfigManager.obj
 0001:00000620       ?send_set_and_check@CConfigManager@@IAEKPBD0@Z 10001620 f   ConfigManager.obj
 0001:00000660       ?set_bandwidth@CConfigManager@@QAEXHABVCString@@0@Z 10001660 f   ConfigManager.obj
 0001:000006e0       ?set_name@CConfigManager@@QAEXPBDABVCString@@1@Z 100016e0 f   ConfigManager.obj
 0001:00000760       ?set_temp_video_size@CConfigManager@@QAEXFF@Z 10001760 f   ConfigManager.obj
 0001:000007e0       ?restore_video_size@CConfigManager@@QAEXXZ 100017e0 f   ConfigManager.obj
 0001:00000850       ?get_bandwidth@CConfigManager@@QAEHXZ 10001850 f   ConfigManager.obj
 0001:00000a20       ?get_name@CConfigManager@@QAE?AVCString@@XZ 10001a20 f   ConfigManager.obj
 0001:00000be0       ?get_mac_addr@CConfigManager@@QAE?AVCString@@XZ 10001be0 f   ConfigManager.obj
 0001:00000c70       ?get_position_count@CConfigManager@@QAEFXZ 10001c70 f   ConfigManager.obj
 0001:00000c90       ?retrieve_position_names@CConfigManager@@IAEXXZ 10001c90 f   ConfigManager.obj
 0001:00000fe0       ?get_position_name@CConfigManager@@QAE?AVCString@@H@Z 10001fe0 f   ConfigManager.obj
 0001:00001040       ?get_device_count@CConfigManager@@QAEFF@Z 10002040 f   ConfigManager.obj
 0001:00001080       ?get_device_name@CConfigManager@@QAE?AVCString@@HH@Z 10002080 f   ConfigManager.obj
 0001:00001130       ??1DevInfo@CConfigManager@@QAE@XZ 10002130 f i ConfigManager.obj
 0001:00001140       ?get_device_state@CConfigManager@@QAEFHH@Z 10002140 f   ConfigManager.obj
 0001:00001210       ?retrieve_device_info@CConfigManager@@IAEXXZ 10002210 f   ConfigManager.obj
 0001:000017b0       ?get_basic_setup@CConfigManager@@QAEHAAVCString@@@Z 100027b0 f   ConfigManager.obj
 0001:00001830       ?set_basic_setup@CConfigManager@@QAEHPBD@Z 10002830 f   ConfigManager.obj
 0001:00001850       ?change_dev_state@CConfigManager@@QAEXFFH@Z 10002850 f   ConfigManager.obj
 0001:00001910       ?change_pos_name@CConfigManager@@QAEXFPBD@Z 10002910 f   ConfigManager.obj
 0001:00001930       ??0?$CArray@UDevInfo@CConfigManager@@AAU12@@@QAE@XZ 10002930 f i ConfigManager.obj
 0001:00001950       ?GetAt@?$CArray@UDevInfo@CConfigManager@@AAU12@@@QBE?AUDevInfo@CConfigManager@@H@Z 10002950 f i ConfigManager.obj
 0001:00001990       ??1?$CArray@UDevInfo@CConfigManager@@AAU12@@@UAE@XZ 10002990 f i ConfigManager.obj
 0001:00001a00       ?Serialize@?$CArray@UDevInfo@CConfigManager@@AAU12@@@UAEXAAVCArchive@@@Z 10002a00 f i ConfigManager.obj
 0001:00001bd0       ??_G?$CArray@UDevInfo@CConfigManager@@AAU12@@@UAEPAXI@Z 10002bd0 f i ConfigManager.obj
 0001:00001bd0       ??_E?$CArray@UDevInfo@CConfigManager@@AAU12@@@UAEPAXI@Z 10002bd0 f i ConfigManager.obj
 0001:00001bf0       ??_ECObject@@UAEPAXI@Z     10002bf0 f i ConfigManager.obj
 0001:00001bf0       ??_GCObject@@UAEPAXI@Z     10002bf0 f i ConfigManager.obj
 0001:00001c10       ??1CObject@@UAE@XZ         10002c10 f i ConfigManager.obj
 0001:00001c20       ?Serialize@CObject@@UAEXAAVCArchive@@@Z 10002c20 f i ConfigManager.obj
 0001:00001c30       ?AssertValid@CObject@@UBEXXZ 10002c30 f i ConfigManager.obj
 0001:00001c40       ?Dump@CObject@@UBEXAAVCDumpContext@@@Z 10002c40 f i ConfigManager.obj
 0001:00001c50       ??_GDevInfo@CConfigManager@@QAEPAXI@Z 10002c50 f i ConfigManager.obj
 0001:00001c70       ?ConstructElements@@YGXPAUDevInfo@CConfigManager@@H@Z 10002c70 f i ConfigManager.obj
 0001:00001cf0       ??3@YAXPAX0@Z              10002cf0 f i ConfigManager.obj
 0001:00001d00       ?CvtHex@@YAXQAD0@Z         10002d00 f   digcalc.obj
 0001:00001d50       ?DigestCalcHA1@@YAXPBD00000QAD@Z 10002d50 f   digcalc.obj
 0001:00001eb0       ?DigestCalcResponse@@YAXQBDPBD111110QAD@Z 10002eb0 f   digcalc.obj
 0001:000020a0       ??0CEventString@@QAE@ABVCString@@@Z 100030a0 f   EventString.obj
 0001:000020d0       ?AddRef@CEventString@@MAGKXZ 100030d0 f i EventString.obj
 0001:000020f0       ?Release@CEventString@@MAGKXZ 100030f0 f i EventString.obj
 0001:00002130       ?QueryInterface@CEventString@@MAGJABU_GUID@@PAPAX@Z 10003130 f i EventString.obj
 0001:00002170       ??1CEventString@@QAE@XZ    10003170 f i EventString.obj
 0001:00002180       ?GetText@CEventString@@MAGJPAEH@Z 10003180 f   EventString.obj
 0001:000021d0       ??0CICSStreamFilter@@QAE@PAUIUnknown@@PAJ@Z 100031d0 f   fICSStream.obj
 0001:000026d0       ??_GCICSStreamFilter@@UAEPAXI@Z 100036d0 f i fICSStream.obj
 0001:000026d0       ??_ECICSStreamFilter@@UAEPAXI@Z 100036d0 f i fICSStream.obj
 0001:000026f0       ??1CICSStreamFilter@@UAE@XZ 100036f0 f   fICSStream.obj
 0001:000029e0       ?NonDelegatingQueryInterface@CICSStreamFilter@@MAGJABU_GUID@@PAPAX@Z 100039e0 f   fICSStream.obj
 0001:00002b60       ?GetPages@CICSStreamFilter@@MAGJPAUtagCAUUID@@@Z 10003b60 f   fICSStream.obj
 0001:00002be0       ?Run@CICSStreamFilter@@MAGJ_J@Z 10003be0 f   fICSStream.obj
 0001:00002c40       ?Stop@CICSStreamFilter@@MAGJXZ 10003c40 f   fICSStream.obj
 0001:00002de0       ?Pause@CICSStreamFilter@@MAGJXZ 10003de0 f   fICSStream.obj
 0001:00002f90       ?StartPlay@CICSStreamFilter@@QAEJH@Z 10003f90 f   fICSStream.obj
 0001:000031d0       ?StopPlay@CICSStreamFilter@@QAEJHH@Z 100041d0 f   fICSStream.obj
 0001:00003290       ?OnRTSPCallbackError@CICSStreamFilter@@MAGXJPBD@Z 10004290 f   fICSStream.obj
 0001:00003360       ?OnRTSPCallbackAuthError@CICSStreamFilter@@MAGX_N@Z 10004360 f   fICSStream.obj
 0001:000033a0       ?OnRTSPCallbackEncryptAuthError@CICSStreamFilter@@MAGXH@Z 100043a0 f   fICSStream.obj
 0001:000033d0       ?OnRTSPCallbackInit@CICSStreamFilter@@MAGXJ@Z 100043d0 f   fICSStream.obj
 0001:00003560       ?OnRTSPCallbackConnecting@CICSStreamFilter@@MAGXJ@Z 10004560 f   fICSStream.obj
 0001:00003580       ?OnRTSPCallbackConnected@CICSStreamFilter@@MAGXJ@Z 10004580 f   fICSStream.obj
 0001:00003670       ?OnRTSPCallbackAuthenticating@CICSStreamFilter@@MAGXJ@Z 10004670 f   fICSStream.obj
 0001:00003690       ?OnRTSPCallbackWaitingAuth@CICSStreamFilter@@MAGXJ@Z 10004690 f   fICSStream.obj
 0001:000036b0       ?OnRTSPCallbackAuthenticated@CICSStreamFilter@@MAGXJ@Z 100046b0 f   fICSStream.obj
 0001:000037c0       ?OnRTSPCallbackEncryptAuthenticating@CICSStreamFilter@@MAGXJ@Z 100047c0 f   fICSStream.obj
 0001:000037e0       ?OnRTSPCallbackWaitingEncryptAuth@CICSStreamFilter@@MAGXJ@Z 100047e0 f   fICSStream.obj
 0001:00003800       ?OnRTSPCallbackEncryptAuthenticated@CICSStreamFilter@@MAGXJ@Z 10004800 f   fICSStream.obj
 0001:00003a80       ?OnRTSPCallbackPlaying@CICSStreamFilter@@MAGXJ@Z 10004a80 f   fICSStream.obj
 0001:00003c40       ?OnRTSPCallbackPlayed@CICSStreamFilter@@MAGXJ@Z 10004c40 f   fICSStream.obj
 0001:00003e70       ?OnRTSPCallbackStopping@CICSStreamFilter@@MAGXJ@Z 10004e70 f   fICSStream.obj
 0001:00003fa0       ?signal_error@CICSStreamFilter@@QAEJJIH@Z 10004fa0 f   fICSStream.obj
 0001:000040a0       ?signal_error@CICSStreamFilter@@QAEJJABVCString@@H@Z 100050a0 f   fICSStream.obj
 0001:00004130       ?MMTimerCallback@CICSStreamFilter@@CGXIIKKK@Z 10005130 f   fICSStream.obj
 0001:00004180       ?get_session_id@CICSStreamFilter@@QAEPBDXZ 10005180 f   fICSStream.obj
 0001:000041a0       ?is_audio_permitted@CICSStreamFilter@@QBE_NXZ 100051a0 f   fICSStream.obj
 0001:000041d0       ?on_no_video@CICSStreamFilter@@QAEXK@Z 100051d0 f   fICSStream.obj
 0001:000041f0       ?notify_server_state@CICSStreamFilter@@QAEXE@Z 100051f0 f   fICSStream.obj
 0001:00004220       ?notify_alarm@CICSStreamFilter@@QAEXE@Z 10005220 f   fICSStream.obj
 0001:00004250       ?on_stop_by_novideo@CICSStreamFilter@@QAEXI@Z 10005250 f   fICSStream.obj
 0001:000042b0       ?on_session_count@CICSStreamFilter@@QAEXF@Z 100052b0 f   fICSStream.obj
 0001:000042d0       ?on_congestion@CICSStreamFilter@@QAEXXZ 100052d0 f   fICSStream.obj
 0001:000042f0       ?notify_abnormal_stop@CICSStreamFilter@@QAEXXZ 100052f0 f   fICSStream.obj
 0001:00004310       ?SetAuthInfo@CICSStreamFilter@@MAGJPBE0@Z 10005310 f   fICSStream.obj
 0001:00004350       ?SetServerInfo@CICSStreamFilter@@MAGJPBEH@Z 10005350 f   fICSStream.obj
 0001:000043a0       ?GetAuthInfo@CICSStreamFilter@@MAGJPAEH0H@Z 100053a0 f   fICSStream.obj
 0001:00004420       ?GetServerInfo@CICSStreamFilter@@MAGJPAEHPAH@Z 10005420 f   fICSStream.obj
 0001:00004480       ?GetSessionID@CICSStreamFilter@@MAGJPAEH@Z 10005480 f   fICSStream.obj
 0001:000044f0       ?SetRTSPPort@CICSStreamFilter@@MAGJH@Z 100054f0 f   fICSStream.obj
 0001:00004520       ?GetRTSPPort@CICSStreamFilter@@MAGHXZ 10005520 f   fICSStream.obj
 0001:00004530       ?SetRTSPOverHttpPort@CICSStreamFilter@@MAGJH@Z 10005530 f   fICSStream.obj
 0001:00004560       ?GetRTSPOverHttpPort@CICSStreamFilter@@MAGHXZ 10005560 f   fICSStream.obj
 0001:00004570       ?IsAudioPermitted@CICSStreamFilter@@MAGEXZ 10005570 f   fICSStream.obj
 0001:00004580       ?SetReconnect@CICSStreamFilter@@MAGJE@Z 10005580 f   fICSStream.obj
 0001:000045a0       ?GetReconnect@CICSStreamFilter@@MAGEXZ 100055a0 f   fICSStream.obj
 0001:000045b0       ?SetUseRTSPOverHttp@CICSStreamFilter@@MAGJE@Z 100055b0 f   fICSStream.obj
 0001:000045d0       ?GetUseRTSPOverHttp@CICSStreamFilter@@MAGEXZ 100055d0 f   fICSStream.obj
 0001:000045e0       ?SetActualStopInterval@CICSStreamFilter@@MAGJH@Z 100055e0 f   fICSStream.obj
 0001:000045f0       ?GetActualStopInterval@CICSStreamFilter@@MAGHXZ 100055f0 f   fICSStream.obj
 0001:00004600       ?SetReconnectInterval@CICSStreamFilter@@MAGJH@Z 10005600 f   fICSStream.obj
 0001:00004620       ?GetReconnectInterval@CICSStreamFilter@@MAGHXZ 10005620 f   fICSStream.obj
 0001:00004630       ?GetVideoOutputPin@CICSStreamFilter@@QAEPAVCICSStreamVideoOut@@XZ 10005630 f   fICSStream.obj
 0001:00004640       ?GetAudioOutputPin@CICSStreamFilter@@QAEPAVCICSStreamAudioOut@@XZ 10005640 f   fICSStream.obj
 0001:00004650       ?StartTestConnect@CICSStreamFilter@@MAGJPAUIICSNotifyCallback@@@Z 10005650 f   fICSStream.obj
 0001:00004780       ?StopTestConnect@CICSStreamFilter@@MAGJXZ 10005780 f   fICSStream.obj
 0001:00004830       ?IsUsingInternalCodec@CICSStreamFilter@@MAGJXZ 10005830 f   fICSStream.obj
 0001:00004850       ?SetUseInternalCodec@CICSStreamFilter@@MAGJE@Z 10005850 f   fICSStream.obj
 0001:000049b0       ?SelectAllOutputFormats@CICSStreamFilter@@MAGJXZ 100059b0 f   fICSStream.obj
 0001:000049c0       ?EnableOutputFormat@CICSStreamFilter@@MAGJKE@Z 100059c0 f   fICSStream.obj
 0001:000049d0       ?IsOutputFormatEnabled@CICSStreamFilter@@MAGJK@Z 100059d0 f   fICSStream.obj
 0001:000049e0       ?NotifyEvent@CICSStreamFilter@@UAEJJJJ@Z 100059e0 f   fICSStream.obj
 0001:00004b60       ?EventNotifyThreadProc@CICSStreamFilter@@CGJPAV1@@Z 10005b60 f   fICSStream.obj
 0001:00004b90       ?EventNotifyThreadRun@CICSStreamFilter@@AAEHXZ 10005b90 f   fICSStream.obj
 0001:00004c40       ?EventNotifyThreadExit@CICSStreamFilter@@AAEXXZ 10005c40 f   fICSStream.obj
 0001:00004c70       ?IsPTZSupported@CICSStreamFilter@@MAGJXZ 10005c70 f   fICSStream.obj
 0001:00004cd0       ?SetReversePTZ@CICSStreamFilter@@MAGJE@Z 10005cd0 f   fICSStream.obj
 0001:00004ce0       ?SetPTZOnOff@CICSStreamFilter@@MAGJE@Z 10005ce0 f   fICSStream.obj
 0001:00004d10       ?SetIrisOnOff@CICSStreamFilter@@MAGJE@Z 10005d10 f   fICSStream.obj
 0001:00004d40       ?SetNightOnOff@CICSStreamFilter@@MAGJE@Z 10005d40 f   fICSStream.obj
 0001:00004d70       ?ZoomIn@CICSStreamFilter@@MAGJXZ 10005d70 f   fICSStream.obj
 0001:00004d90       ?ZoomInStep@CICSStreamFilter@@MAGJF@Z 10005d90 f   fICSStream.obj
 0001:00004db0       ?ZoomInEx@CICSStreamFilter@@MAGJEFK@Z 10005db0 f   fICSStream.obj
 0001:00004e20       ?ZoomOut@CICSStreamFilter@@MAGJXZ 10005e20 f   fICSStream.obj
 0001:00004e40       ?ZoomOutStep@CICSStreamFilter@@MAGJF@Z 10005e40 f   fICSStream.obj
 0001:00004e60       ?ZoomOutEx@CICSStreamFilter@@MAGJEFK@Z 10005e60 f   fICSStream.obj
 0001:00004ed0       ?PanLeft@CICSStreamFilter@@MAGJF@Z 10005ed0 f   fICSStream.obj
 0001:00004ef0       ?PanLeftEx@CICSStreamFilter@@MAGJEFK@Z 10005ef0 f   fICSStream.obj
 0001:00004f80       ?PanRight@CICSStreamFilter@@MAGJF@Z 10005f80 f   fICSStream.obj
 0001:00004fa0       ?PanRightEx@CICSStreamFilter@@MAGJEFK@Z 10005fa0 f   fICSStream.obj
 0001:00005040       ?SetPanSpeed@CICSStreamFilter@@MAGJF@Z 10006040 f   fICSStream.obj
 0001:00005060       ?GetPanSpeed@CICSStreamFilter@@MAGJPAF@Z 10006060 f   fICSStream.obj
 0001:00005090       ?SetTiltSpeed@CICSStreamFilter@@MAGJF@Z 10006090 f   fICSStream.obj
 0001:000050b0       ?GetTiltSpeed@CICSStreamFilter@@MAGJPAF@Z 100060b0 f   fICSStream.obj
 0001:000050e0       ?SetZoomSpeed@CICSStreamFilter@@MAGJF@Z 100060e0 f   fICSStream.obj
 0001:00005100       ?GetZoomSpeed@CICSStreamFilter@@MAGJPAF@Z 10006100 f   fICSStream.obj
 0001:00005130       ?TiltUp@CICSStreamFilter@@MAGJF@Z 10006130 f   fICSStream.obj
 0001:00005150       ?TiltUpEx@CICSStreamFilter@@MAGJEFK@Z 10006150 f   fICSStream.obj
 0001:000051f0       ?TiltDown@CICSStreamFilter@@MAGJF@Z 100061f0 f   fICSStream.obj
 0001:00005210       ?TiltDownEx@CICSStreamFilter@@MAGJEFK@Z 10006210 f   fICSStream.obj
 0001:000052b0       ?FocusFar@CICSStreamFilter@@MAGJXZ 100062b0 f   fICSStream.obj
 0001:000052d0       ?FocusFarEx@CICSStreamFilter@@MAGJEFK@Z 100062d0 f   fICSStream.obj
 0001:00005340       ?FocusNear@CICSStreamFilter@@MAGJXZ 10006340 f   fICSStream.obj
 0001:00005360       ?FocusNearEx@CICSStreamFilter@@MAGJEFK@Z 10006360 f   fICSStream.obj
 0001:000053d0       ?AutoPan@CICSStreamFilter@@MAGJXZ 100063d0 f   fICSStream.obj
 0001:000053f0       ?AutoTilt@CICSStreamFilter@@MAGJXZ 100063f0 f   fICSStream.obj
 0001:00005410       ?AutoPanTilt@CICSStreamFilter@@MAGJXZ 10006410 f   fICSStream.obj
 0001:00005430       ?AutoFocus@CICSStreamFilter@@MAGJXZ 10006430 f   fICSStream.obj
 0001:00005450       ?AutoIris@CICSStreamFilter@@MAGJXZ 10006450 f   fICSStream.obj
 0001:00005470       ?SetAutoPanLeftLimit@CICSStreamFilter@@MAGJXZ 10006470 f   fICSStream.obj
 0001:00005490       ?SetAutoPanRightLimit@CICSStreamFilter@@MAGJXZ 10006490 f   fICSStream.obj
 0001:000054b0       ?SetAutoTiltUpLimit@CICSStreamFilter@@MAGJXZ 100064b0 f   fICSStream.obj
 0001:000054d0       ?SetAutoTiltDownLimit@CICSStreamFilter@@MAGJXZ 100064d0 f   fICSStream.obj
 0001:000054f0       ?ResetPanTiltLimit@CICSStreamFilter@@MAGJXZ 100064f0 f   fICSStream.obj
 0001:00005510       ?GetPositionCount@CICSStreamFilter@@MAGJPAF@Z 10006510 f   fICSStream.obj
 0001:00005550       ?SetPosition@CICSStreamFilter@@MAGJF@Z 10006550 f   fICSStream.obj
 0001:00005570       ?GetPositionName@CICSStreamFilter@@MAGJFPAEH@Z 10006570 f   fICSStream.obj
 0001:000056e0       ?SetPositionName@CICSStreamFilter@@MAGJFPBE@Z 100066e0 f   fICSStream.obj
 0001:00005740       ?MoveToPosition@CICSStreamFilter@@MAGJF@Z 10006740 f   fICSStream.obj
 0001:00005760       ?UpdatePosition@CICSStreamFilter@@MAGJXZ 10006760 f   fICSStream.obj
 0001:00005780       ?MoveCenter@CICSStreamFilter@@MAGJFF@Z 10006780 f   fICSStream.obj
 0001:00005880       ?SetPreset@CICSStreamFilter@@MAGJF@Z 10006880 f   fICSStream.obj
 0001:000058a0       ?MoveToPreset@CICSStreamFilter@@MAGJF@Z 100068a0 f   fICSStream.obj
 0001:000058c0       ?GetExtDeviceCount@CICSStreamFilter@@MAGJFPAF@Z 100068c0 f   fICSStream.obj
 0001:00005910       ?GetExtDeviceName@CICSStreamFilter@@MAGJFFPAEH@Z 10006910 f   fICSStream.obj
 0001:00005a80       ?GetExtDeviceState@CICSStreamFilter@@MAGJFFPAF@Z 10006a80 f   fICSStream.obj
 0001:00005ae0       ?RunExternalDevice@CICSStreamFilter@@MAGJFFE@Z 10006ae0 f   fICSStream.obj
 0001:00005b90       ?ReturnHome@CICSStreamFilter@@MAGJXZ 10006b90 f   fICSStream.obj
 0001:00005bb0       ?DoCustomPtz@CICSStreamFilter@@MAGJPAE@Z 10006bb0 f   fICSStream.obj
 0001:00005bd0       ?ProcessPTZCommand@CICSStreamFilter@@AAEJW4PTZCommand@@PBFHPBD@Z 10006bd0 f   fICSStream.obj
 0001:00006080       ?IsUsingConvertMPEG4ToStd@CICSStreamFilter@@MAGJXZ 10007080 f   fICSStream.obj
 0001:000060a0       ?SetUseConvertMPEG4ToStd@CICSStreamFilter@@MAGJE@Z 100070a0 f   fICSStream.obj
 0001:000060e0       ?GetSessionName@CICSStreamFilter@@MAGJPAEJ@Z 100070e0 f   fICSStream.obj
 0001:00006170       ?GetReceivedPacketCount@CICSStreamFilter@@MAGJPAJ@Z 10007170 f   fICSStream.obj
 0001:000061b0       ?GetExpectedPacketCount@CICSStreamFilter@@MAGJPAJ@Z 100071b0 f   fICSStream.obj
 0001:000061f0       ?TalkIsSupported@CICSStreamFilter@@MAGJXZ 100071f0 f   fICSStream.obj
 0001:00006220       ?TalkStart@CICSStreamFilter@@MAGJXZ 10007220 f   fICSStream.obj
 0001:00006230       ?TalkStop@CICSStreamFilter@@MAGJXZ 10007230 f   fICSStream.obj
 0001:00006240       ?GetTalkStatus@CICSStreamFilter@@MAGJPAJ@Z 10007240 f   fICSStream.obj
 0001:00006250       ?signal_check_session@CICSStreamFilter@@QAE_NXZ 10007250 f   fICSStream.obj
 0001:00006270       ?GetSDPDescription@CICSStreamFilter@@MAGJPAEPAJ@Z 10007270 f   fICSStream.obj
 0001:00006300       ?QueryProgress@CICSStreamFilter@@MAGJPA_J0@Z 10007300 f   fICSStream.obj
 0001:00006350       ?AbortOperation@CICSStreamFilter@@MAGJXZ 10007350 f   fICSStream.obj
 0001:00006360       ??1?$CAutoPtr@VRTSPThread@@@@QAE@XZ 10007360 f i fICSStream.obj
 0001:00006380       ??1?$CAutoPtr@VRTPThread@@@@QAE@XZ 10007380 f i fICSStream.obj
 0001:000063a0       ??1?$CAutoPtr@VCICSStreamAudioOut@@@@QAE@XZ 100073a0 f i fICSStream.obj
 0001:000063c0       ??1?$CAutoPtr@VCICSStreamVideoOut@@@@QAE@XZ 100073c0 f i fICSStream.obj
 0001:000063e0       ??1?$CQueue@UtNOTIFYEVENT@CICSStreamFilter@@@@QAE@XZ 100073e0 f i fICSStream.obj
 0001:00006410       ??1?$CAutoPtr@VCPTZController@@@@QAE@XZ 10007410 f i fICSStream.obj
 0001:00006430       ??1?$CAutoPtr@VCConfigManager@@@@QAE@XZ 10007430 f i fICSStream.obj
 0001:00006450       ??1?$CAutoPtr@VHttpAgent@@@@QAE@XZ 10007450 f i fICSStream.obj
 0001:00006470       ??1?$CComQIPtr@UIMediaObject@@$1?_GUID_d8ad0f58_5494_4102_97c5_ec798e59bcf4@@3U__s_GUID@@A@ATL@@QAE@XZ 10007470 f i fICSStream.obj
 0001:00006480       ?QueryInterface@CICSStreamFilter@@O3AGJABU_GUID@@PAPAX@Z 10007480 f i fICSStream.obj
 0001:00006490       ?AddRef@CICSStreamFilter@@O3AGKXZ 10007490 f i fICSStream.obj
 0001:000064a0       ?Release@CICSStreamFilter@@O3AGKXZ 100074a0 f i fICSStream.obj
 0001:000064b0       ?QueryInterface@CICSStreamFilter@@OGE@AGJABU_GUID@@PAPAX@Z 100074b0 f i fICSStream.obj
 0001:000064c0       ?AddRef@CICSStreamFilter@@OGE@AGKXZ 100074c0 f i fICSStream.obj
 0001:000064d0       ?Release@CICSStreamFilter@@OGE@AGKXZ 100074d0 f i fICSStream.obj
 0001:000064e0       ?QueryInterface@CICSStreamFilter@@OGI@AGJABU_GUID@@PAPAX@Z 100074e0 f i fICSStream.obj
 0001:000064f0       ?AddRef@CICSStreamFilter@@OGI@AGKXZ 100074f0 f i fICSStream.obj
 0001:00006500       ?Release@CICSStreamFilter@@OGI@AGKXZ 10007500 f i fICSStream.obj
 0001:00006510       ?QueryInterface@CICSStreamFilter@@OGM@AGJABU_GUID@@PAPAX@Z 10007510 f i fICSStream.obj
 0001:00006520       ?AddRef@CICSStreamFilter@@OGM@AGKXZ 10007520 f i fICSStream.obj
 0001:00006530       ?Release@CICSStreamFilter@@OGM@AGKXZ 10007530 f i fICSStream.obj
 0001:00006540       ?QueryInterface@CICSStreamFilter@@OHA@AGJABU_GUID@@PAPAX@Z 10007540 f i fICSStream.obj
 0001:00006550       ?AddRef@CICSStreamFilter@@OHA@AGKXZ 10007550 f i fICSStream.obj
 0001:00006560       ?Release@CICSStreamFilter@@OHA@AGKXZ 10007560 f i fICSStream.obj
 0001:00006570       ?QueryInterface@CICSStreamFilter@@OHE@AGJABU_GUID@@PAPAX@Z 10007570 f i fICSStream.obj
 0001:00006580       ?AddRef@CICSStreamFilter@@OHE@AGKXZ 10007580 f i fICSStream.obj
 0001:00006590       ?Release@CICSStreamFilter@@OHE@AGKXZ 10007590 f i fICSStream.obj
 0001:000065a0       ?QueryInterface@CICSStreamFilter@@OHI@AGJABU_GUID@@PAPAX@Z 100075a0 f i fICSStream.obj
 0001:000065b0       ?AddRef@CICSStreamFilter@@OHI@AGKXZ 100075b0 f i fICSStream.obj
 0001:000065c0       ?Release@CICSStreamFilter@@OHI@AGKXZ 100075c0 f i fICSStream.obj
 0001:000065d0       ?QueryInterface@CICSStreamFilter@@OIA@AGJABU_GUID@@PAPAX@Z 100075d0 f i fICSStream.obj
 0001:000065e0       ?AddRef@CICSStreamFilter@@OIA@AGKXZ 100075e0 f i fICSStream.obj
 0001:000065f0       ?Release@CICSStreamFilter@@OIA@AGKXZ 100075f0 f i fICSStream.obj
 0001:00006600       ??1CAutoLock@@QAE@XZ       10007600 f i fICSStream.obj
 0001:00006610       ?GetSetupData@CBaseFilter@@UAEPAU_AMOVIESETUP_FILTER@@XZ 10007610 f i fICSStream.obj
 0001:00006620       ?QueryInterface@CICSStreamFilter@@MAGJABU_GUID@@PAPAX@Z 10007620 f i fICSStream.obj
 0001:00006630       ?AddRef@CICSStreamFilter@@MAGKXZ 10007630 f i fICSStream.obj
 0001:00006640       ?Release@CICSStreamFilter@@MAGKXZ 10007640 f i fICSStream.obj
 0001:00006650       ??0CICSStreamVideoOut@@QAE@PAJPAVCICSStreamFilter@@PBG@Z 10007650 f   fICSStream_op.obj
 0001:00006800       ??_GCICSStreamVideoOut@@UAEPAXI@Z 10007800 f i fICSStream_op.obj
 0001:00006800       ??_ECICSStreamVideoOut@@UAEPAXI@Z 10007800 f i fICSStream_op.obj
 0001:00006820       ??1CICSStreamVideoOut@@UAE@XZ 10007820 f   fICSStream_op.obj
 0001:000068b0       ?DecideBufferSize@CICSStreamVideoOut@@MAEJPAUIMemAllocator@@PAU_AllocatorProperties@@@Z 100078b0 f   fICSStream_op.obj
 0001:000069b0       ?CheckFPS@CICSStreamVideoOut@@AAEXXZ 100079b0 f   fICSStream_op.obj
 0001:00006a00       ?FillBuffer@CICSStreamVideoOut@@MAEJPAUIMediaSample@@@Z 10007a00 f   fICSStream_op.obj
 0001:00006ea0       ??1CMediaBuffer@@QAE@XZ    10007ea0 f i fICSStream_op.obj
 0001:00006eb0       ?QueryInterface@CMediaBuffer@@UAGJABU_GUID@@PAPAX@Z 10007eb0 f i fICSStream_op.obj
 0001:00006f10       ?AddRef@CMediaBuffer@@UAGKXZ 10007f10 f i fICSStream_op.obj
 0001:00006f20       ?Release@CMediaBuffer@@UAGKXZ 10007f20 f i fICSStream_op.obj
 0001:00006f30       ?SetLength@CMediaBuffer@@UAGJK@Z 10007f30 f i fICSStream_op.obj
 0001:00006f50       ?GetMaxLength@CMediaBuffer@@UAGJPAK@Z 10007f50 f i fICSStream_op.obj
 0001:00006f70       ?GetBufferAndLength@CMediaBuffer@@UAGJPAPAEPAK@Z 10007f70 f i fICSStream_op.obj
 0001:00006fa0       ?OnThreadCreate@CICSStreamVideoOut@@MAEJXZ 10007fa0 f   fICSStream_op.obj
 0001:00007010       ?OnThreadDestroy@CICSStreamVideoOut@@MAEJXZ 10008010 f   fICSStream_op.obj
 0001:00007050       ?OnThreadStartPlay@CICSStreamVideoOut@@MAEJXZ 10008050 f   fICSStream_op.obj
 0001:000070a0       ?CheckMediaType@CICSStreamVideoOut@@MAEJPBVCMediaType@@@Z 100080a0 f   fICSStream_op.obj
 0001:000071a0       ?GetMediaType@CICSStreamVideoOut@@MAEJHPAVCMediaType@@@Z 100081a0 f   fICSStream_op.obj
 0001:00007610       ?SetMediaType@CICSStreamVideoOut@@MAEJPBVCMediaType@@@Z 10008610 f   fICSStream_op.obj
 0001:000076d0       ?PutVideoFrame@CICSStreamVideoOut@@QAEJQAEK_JH@Z 100086d0 f   fICSStream_op.obj
 0001:00007940       ?ChangeColorSpace@CICSStreamVideoOut@@IAEJU_GUID@@0PAX@Z 10008940 f   fICSStream_op.obj
 0001:00007d80       ?ConvertImagiaMPEG4@CICSStreamVideoOut@@AAEHPAEJ@Z 10008d80 f   fICSStream_op.obj
 0001:00007ed0       ??0CICSStreamAudioOut@@QAE@PAJPAVCICSStreamFilter@@PBG@Z 10008ed0 f   fICSStream_op.obj
 0001:00007f90       ??_ECICSStreamAudioOut@@UAEPAXI@Z 10008f90 f i fICSStream_op.obj
 0001:00007f90       ??_GCICSStreamAudioOut@@UAEPAXI@Z 10008f90 f i fICSStream_op.obj
 0001:00007fb0       ??1CICSStreamAudioOut@@UAE@XZ 10008fb0 f   fICSStream_op.obj
 0001:000080a0       ?DecideBufferSize@CICSStreamAudioOut@@MAEJPAUIMemAllocator@@PAU_AllocatorProperties@@@Z 100090a0 f   fICSStream_op.obj
 0001:00008170       ?OnThreadCreate@CICSStreamAudioOut@@MAEJXZ 10009170 f   fICSStream_op.obj
 0001:00008210       ?OnThreadDestroy@CICSStreamAudioOut@@MAEJXZ 10009210 f   fICSStream_op.obj
 0001:00008280       ?OnThreadStartPlay@CICSStreamAudioOut@@MAEJXZ 10009280 f   fICSStream_op.obj
 0001:000082d0       ?GetMediaType@CICSStreamAudioOut@@MAEJPAVCMediaType@@@Z 100092d0 f   fICSStream_op.obj
 0001:00008690       ?PutAudioFrame@CICSStreamAudioOut@@QAEJQAEKE@Z 10009690 f   fICSStream_op.obj
 0001:000087e0       ?FillBuffer@CICSStreamAudioOut@@EAEJPAUIMediaSample@@@Z 100097e0 f   fICSStream_op.obj
 0001:00008b20       ?SetMediaType@CICSStreamAudioOut@@MAEJPBVCMediaType@@@Z 10009b20 f   fICSStream_op.obj
 0001:00008bf0       ??1?$CAutoPtr@Ug72x_state@@@@QAE@XZ 10009bf0 f i fICSStream_op.obj
 0001:00008c10       ??1?$CAutoPtr@UICSAUDIOFRAME@CICSStreamAudioOut@@@@QAE@XZ 10009c10 f i fICSStream_op.obj
 0001:00008c30       ??_ECICSStreamVideoOut@@WEI@AEPAXI@Z 10009c30 f i fICSStream_op.obj
 0001:00008c40       ?QueryInterface@CBasePin@@W3AGJABU_GUID@@PAPAX@Z 10009c40 f i fICSStream_op.obj
 0001:00008c50       ?AddRef@CBasePin@@W3AGKXZ  10009c50 f i fICSStream_op.obj
 0001:00008c60       ?Release@CBasePin@@W3AGKXZ 10009c60 f i fICSStream_op.obj
 0001:00008c70       ??_ECICSStreamAudioOut@@WEI@AEPAXI@Z 10009c70 f i fICSStream_op.obj
 0001:00008c80       ?QueryInterface@CBasePin@@UAGJABU_GUID@@PAPAX@Z 10009c80 f i fICSStream_op.obj
 0001:00008c90       ?AddRef@CBasePin@@UAGKXZ   10009c90 f i fICSStream_op.obj
 0001:00008ca0       ?Release@CBasePin@@UAGKXZ  10009ca0 f i fICSStream_op.obj
 0001:00008cb0       ?QueryInternalConnections@CBasePin@@UAGJPAPAUIPin@@PAK@Z 10009cb0 f i fICSStream_op.obj
 0001:00008cc0       ?GetMediaType@CSourceStream@@MAEJPAVCMediaType@@@Z 10009cc0 f i fICSStream_op.obj
 0001:00008cd0       ?Notify@CICSStreamVideoOut@@MAGJPAUIBaseFilter@@UtagQuality@@@Z 10009cd0 f i fICSStream_op.obj
 0001:00008ce0       _linear2alaw               10009ce0 f   g711.obj
 0001:00008d80       _alaw2linear               10009d80 f   g711.obj
 0001:00008dc0       _linear2ulaw               10009dc0 f   g711.obj
 0001:00008e20       _ulaw2linear               10009e20 f   g711.obj
 0001:00008e60       _alaw2ulaw                 10009e60 f   g711.obj
 0001:00008ea0       _ulaw2alaw                 10009ea0 f   g711.obj
 0001:00008ee0       _g721_decoder              10009ee0 f   g721.obj
 0001:00008ff0       _g723_16_decoder           10009ff0 f   g723_16.obj
 0001:00009100       _g723_24_decoder           1000a100 f   g723_24.obj
 0001:00009210       _g723_40_decoder           1000a210 f   g723_40.obj
 0001:00009320       _g72x_init_state           1000a320 f   g72x.obj
 0001:00009380       _predictor_zero            1000a380 f   g72x.obj
 0001:00009490       _predictor_pole            1000a490 f   g72x.obj
 0001:000094d0       _step_size                 1000a4d0 f   g72x.obj
 0001:00009520       _quantize                  1000a520 f   g72x.obj
 0001:00009590       _reconstruct               1000a590 f   g72x.obj
 0001:000095e0       _update                    1000a5e0 f   g72x.obj
 0001:000099c0       _tandem_adjust_alaw        1000a9c0 f   g72x.obj
 0001:00009aa0       _tandem_adjust_ulaw        1000aaa0 f   g72x.obj
 0001:00009c10       ??0HttpAgent@@QAE@XZ       1000ac10 f   HttpAgent.obj
 0001:00009c20       ??_GHttpAgent@@UAEPAXI@Z   1000ac20 f i HttpAgent.obj
 0001:00009c20       ??_EHttpAgent@@UAEPAXI@Z   1000ac20 f i HttpAgent.obj
 0001:00009c40       ?Constuction@HttpAgent@@SAXXZ 1000ac40 f   HttpAgent.obj
 0001:00009d10       ?Destuction@HttpAgent@@SAXXZ 1000ad10 f   HttpAgent.obj
 0001:00009da0       ??1HttpAgent@@UAE@XZ       1000ada0 f   HttpAgent.obj
 0001:00009db0       ?HttpCommThread@HttpAgent@@KGKPAX@Z 1000adb0 f   HttpAgent.obj
 0001:00009e90       ??1HttpCmd@HttpAgent@@QAE@XZ 1000ae90 f i HttpAgent.obj
 0001:00009f10       ?send_post_command@HttpAgent@@QAEXABVCString@@HPBD100_N@Z 1000af10 f   HttpAgent.obj
 0001:0000a070       ?send_get_command@HttpAgent@@QAE?AVCString@@ABV2@HPBD00H@Z 1000b070 f   HttpAgent.obj
 0001:0000a1b0       ?send_post_and_check@HttpAgent@@QAEKABVCString@@HPBD100H@Z 1000b1b0 f   HttpAgent.obj
 0001:0000a2f0       ?send_command@HttpAgent@@IAEXAAUHttpCmd@1@@Z 1000b2f0 f   HttpAgent.obj
 0001:0000a610       ?digest_auth_unload@HttpAgent@@SAXPAX@Z 1000b610 f   HttpAgent.obj
 0001:0000a630       ?set_username@HttpAgent@@SAXPAXABVCString@@1@Z 1000b630 f   HttpAgent.obj
 0001:0000a680       ?set_proxy_username@HttpAgent@@SAXPAXABVCString@@1@Z 1000b680 f   HttpAgent.obj
 0001:0000a6d0       ?send_request@HttpAgent@@SAHPAXPBDK0K@Z 1000b6d0 f   HttpAgent.obj
 0001:0000a720       ?authenticate@HttpAgent@@QAEXPBDH00000_N@Z 1000b720 f   HttpAgent.obj
 0001:0000b220       ??0RTSPError@@QAE@ABV0@@Z  1000c220 f i HttpAgent.obj
 0001:0000b250       ??_GRTSPError@@UAEPAXI@Z   1000c250 f i HttpAgent.obj
 0001:0000b250       ??_ERTSPError@@UAEPAXI@Z   1000c250 f i HttpAgent.obj
 0001:0000b270       ?parsing_recv_authenticate@HttpAgent@@QAEXPAD00PBD@Z 1000c270 f   HttpAgent.obj
 0001:0000b360       ??0HTTPMessage@@QAE@XZ     1000c360 f   HTTPMessage.obj
 0001:0000b3b0       ??_GHTTPMessage@@UAEPAXI@Z 1000c3b0 f i HTTPMessage.obj
 0001:0000b3b0       ??_EHTTPMessage@@UAEPAXI@Z 1000c3b0 f i HTTPMessage.obj
 0001:0000b3d0       ??1HTTPMessage@@UAE@XZ     1000c3d0 f   HTTPMessage.obj
 0001:0000b430       ?get_header_value@HTTPMessage@@QBE?AVCString@@PBD@Z 1000c430 f   HTTPMessage.obj
 0001:0000b520       ?get_body@HTTPMessage@@QBEABVMyByteArray@@XZ 1000c520 f   HTTPMessage.obj
 0001:0000b530       ?set_body@HTTPMessage@@QAEXPBEH@Z 1000c530 f   HTTPMessage.obj
 0001:0000b560       ?parse_headers@HTTPMessage@@IAEXABVCStringList@@@Z 1000c560 f   HTTPMessage.obj
 0001:0000b690       ?check_http_version@HTTPMessage@@IBEXPBD@Z 1000c690 f   HTTPMessage.obj
 0001:0000b8b0       ??0HTTPError@@QAE@ABV0@@Z  1000c8b0 f i HTTPMessage.obj
 0001:0000b8d0       ??_GHTTPError@@UAEPAXI@Z   1000c8d0 f i HTTPMessage.obj
 0001:0000b8d0       ??_EHTTPError@@UAEPAXI@Z   1000c8d0 f i HTTPMessage.obj
 0001:0000b8f0       ??0HTTPError@@QAE@XZ       1000c8f0 f   HTTPMessage.obj
 0001:0000b910       ??0HTTPError@@QAE@PBD@Z    1000c910 f   HTTPMessage.obj
 0001:0000b930       ??1HTTPError@@UAE@XZ       1000c930 f   HTTPMessage.obj
 0001:0000b940       ?get_value@HTTPError@@QBEPBDXZ 1000c940 f   HTTPMessage.obj
 0001:0000b950       ?GetNext@CStringList@@QBE?AVCString@@AAPAU__POSITION@@@Z 1000c950 f i HTTPMessage.obj
 0001:0000b980       ??0HTTPResponse@@QAE@PBD@Z 1000c980 f   HTTPResponse.obj
 0001:0000b9f0       ??_GHTTPResponse@@UAEPAXI@Z 1000c9f0 f i HTTPResponse.obj
 0001:0000b9f0       ??_EHTTPResponse@@UAEPAXI@Z 1000c9f0 f i HTTPResponse.obj
 0001:0000ba10       ??1HTTPResponse@@UAE@XZ    1000ca10 f   HTTPResponse.obj
 0001:0000ba70       ?get_status@HTTPResponse@@QBEHXZ 1000ca70 f   HTTPResponse.obj
 0001:0000ba80       ?is_success@HTTPResponse@@QBE_NXZ 1000ca80 f   HTTPResponse.obj
 0001:0000baa0       ?get_reason@HTTPResponse@@QBEABVCString@@XZ 1000caa0 f   HTTPResponse.obj
 0001:0000bab0       ?parse_response@HTTPResponse@@AAEXPBD@Z 1000cab0 f   HTTPResponse.obj
 0001:0000bbe0       ?parse_status_line@HTTPResponse@@AAEXPBD@Z 1000cbe0 f   HTTPResponse.obj
 0001:0000bdd0       ?to_string@HTTPResponse@@QBE?AVCString@@XZ 1000cdd0 f   HTTPResponse.obj
 0001:0000bf90       ??0CICSPtzControlPage@@QAE@PAUIUnknown@@PAJ@Z 1000cf90 f   ICSPtzControlPage.obj
 0001:0000bff0       ??_ECICSPtzControlPage@@UAEPAXI@Z 1000cff0 f i ICSPtzControlPage.obj
 0001:0000bff0       ??_GCICSPtzControlPage@@UAEPAXI@Z 1000cff0 f i ICSPtzControlPage.obj
 0001:0000c020       ??1CICSPtzControlPage@@UAE@XZ 1000d020 f   ICSPtzControlPage.obj
 0001:0000c0f0       ?CreateInstance@CICSPtzControlPage@@SGPAVCUnknown@@PAUIUnknown@@PAJ@Z 1000d0f0 f   ICSPtzControlPage.obj
 0001:0000c160       ?OnConnect@CICSPtzControlPage@@MAEJPAUIUnknown@@@Z 1000d160 f   ICSPtzControlPage.obj
 0001:0000c1a0       ?OnReceiveMessage@CICSPtzControlPage@@MAEHPAUHWND__@@IIJ@Z 1000d1a0 f   ICSPtzControlPage.obj
 0001:0000da20       ?OnDisconnect@CICSPtzControlPage@@MAEJXZ 1000ea20 f   ICSPtzControlPage.obj
 0001:0000daf0       ?OnApplyChanges@CICSPtzControlPage@@MAEJXZ 1000eaf0 f   ICSPtzControlPage.obj
 0001:0000db10       ?BtnButtonSubClass@CICSPtzControlPage@@CGJPAUHWND__@@IIJ@Z 1000eb10 f   ICSPtzControlPage.obj
 0001:0000db80       ??0?$CComQIPtr@UIBaseFilter@@$1?_GUID_56a86895_0ad4_11ce_b03a_0020af0ba770@@3U__s_GUID@@A@ATL@@QAE@PAUIUnknown@@@Z 1000eb80 f i ICSPtzControlPage.obj
 0001:0000dbb0       ??1?$CComQIPtr@UIBaseFilter@@$1?_GUID_56a86895_0ad4_11ce_b03a_0020af0ba770@@3U__s_GUID@@A@ATL@@QAE@XZ 1000ebb0 f i ICSPtzControlPage.obj
 0001:0000dbc0       ??A?$CMap@IIUBTN_BMP@CICSPtzControlPage@@U12@@@QAEAAUBTN_BMP@CICSPtzControlPage@@I@Z 1000ebc0 f i ICSPtzControlPage.obj
 0001:0000dcb0       ??1?$CMap@IIUBTN_BMP@CICSPtzControlPage@@U12@@@UAE@XZ 1000ecb0 f i ICSPtzControlPage.obj
 0001:0000dd40       ?Serialize@?$CMap@IIUBTN_BMP@CICSPtzControlPage@@U12@@@UAEXAAVCArchive@@@Z 1000ed40 f i ICSPtzControlPage.obj
 0001:0000df50       ??_E?$CMap@IIUBTN_BMP@CICSPtzControlPage@@U12@@@UAEPAXI@Z 1000ef50 f i ICSPtzControlPage.obj
 0001:0000df50       ??_G?$CMap@IIUBTN_BMP@CICSPtzControlPage@@U12@@@UAEPAXI@Z 1000ef50 f i ICSPtzControlPage.obj
 0001:0000df70       ?InitHashTable@?$CMap@IIUBTN_BMP@CICSPtzControlPage@@U12@@@QAEXIH@Z 1000ef70 f i ICSPtzControlPage.obj
 0001:0000dfe0       ?NewAssoc@?$CMap@IIUBTN_BMP@CICSPtzControlPage@@U12@@@IAEPAUCAssoc@1@XZ 1000efe0 f i ICSPtzControlPage.obj
 0001:0000e050       ?GetAssocAt@?$CMap@IIUBTN_BMP@CICSPtzControlPage@@U12@@@IBEPAUCAssoc@1@IAAI@Z 1000f050 f i ICSPtzControlPage.obj
 0001:0000e090       ??_9@$BHM@AG               1000f090 f i ICSPtzControlPage.obj
 0001:0000e0a0       ??_9@$BDM@AG               1000f0a0 f i ICSPtzControlPage.obj
 0001:0000e0b0       ??_9@$BGE@AG               1000f0b0 f i ICSPtzControlPage.obj
 0001:0000e0c0       ??_9@$BEE@AG               1000f0c0 f i ICSPtzControlPage.obj
 0001:0000e0d0       ??_9@$BCI@AG               1000f0d0 f i ICSPtzControlPage.obj
 0001:0000e0e0       ??_9@$BGM@AG               1000f0e0 f i ICSPtzControlPage.obj
 0001:0000e0f0       ??_9@$BHE@AG               1000f0f0 f i ICSPtzControlPage.obj
 0001:0000e100       ??_9@$BDE@AG               1000f100 f i ICSPtzControlPage.obj
 0001:0000e110       ??1CBasePropertyPage@@UAE@XZ 1000f110 f i ICSPtzControlPage.obj
 0001:0000e130       ?QueryInterface@CBasePropertyPage@@UAGJABU_GUID@@PAPAX@Z 1000f130 f i ICSPtzControlPage.obj
 0001:0000e140       ?AddRef@CBasePropertyPage@@UAGKXZ 1000f140 f i ICSPtzControlPage.obj
 0001:0000e150       ?Release@CBasePropertyPage@@UAGKXZ 1000f150 f i ICSPtzControlPage.obj
 0001:0000e160       ?OnActivate@CBasePropertyPage@@UAEJXZ 1000f160 f i ICSPtzControlPage.obj
 0001:0000e170       ?OnDeactivate@CBasePropertyPage@@UAEJXZ 1000f170 f i ICSPtzControlPage.obj
 0001:0000e180       ?IsPageDirty@CBasePropertyPage@@UAGJXZ 1000f180 f i ICSPtzControlPage.obj
 0001:0000e1a0       ?Help@CBasePropertyPage@@UAGJPBG@Z 1000f1a0 f i ICSPtzControlPage.obj
 0001:0000e1b0       ?TranslateAcceleratorA@CBasePropertyPage@@UAGJPAUtagMSG@@@Z 1000f1b0 f i ICSPtzControlPage.obj
 0001:0000e1c0       _DllRegisterServer@0       1000f1c0 f   ICSStream.obj
 0001:0000e1d0       _DllUnregisterServer@0     1000f1d0 f   ICSStream.obj
 0001:0000e1e0       ?CreateInstance@CICSStreamFilter@@SGPAVCUnknown@@PAUIUnknown@@PAJ@Z 1000f1e0 f   ICSStream.obj
 0001:0000e250       ?GetFileVersion@@YAHPBDPADPAK@Z 1000f250 f   ICSStreamPropertyPage.obj
 0001:0000e3e0       ?GetFixedFileInfo@@YA_NPBDPAUtagVS_FIXEDFILEINFO@@@Z 1000f3e0 f   ICSStreamPropertyPage.obj
 0001:0000e4a0       ??0CICSStreamPropertyPage@@QAE@PAUIUnknown@@PAJ@Z 1000f4a0 f   ICSStreamPropertyPage.obj
 0001:0000e4e0       ??_GCICSStreamPropertyPage@@UAEPAXI@Z 1000f4e0 f i ICSStreamPropertyPage.obj
 0001:0000e4e0       ??_ECICSStreamPropertyPage@@UAEPAXI@Z 1000f4e0 f i ICSStreamPropertyPage.obj
 0001:0000e510       ??1CICSStreamPropertyPage@@UAE@XZ 1000f510 f   ICSStreamPropertyPage.obj
 0001:0000e540       ?CreateInstance@CICSStreamPropertyPage@@SGPAVCUnknown@@PAUIUnknown@@PAJ@Z 1000f540 f   ICSStreamPropertyPage.obj
 0001:0000e5b0       ?OnConnect@CICSStreamPropertyPage@@MAEJPAUIUnknown@@@Z 1000f5b0 f   ICSStreamPropertyPage.obj
 0001:0000e5f0       ?OnReceiveMessage@CICSStreamPropertyPage@@MAEHPAUHWND__@@IIJ@Z 1000f5f0 f   ICSStreamPropertyPage.obj
 0001:0000ed10       ?OnDisconnect@CICSStreamPropertyPage@@MAEJXZ 1000fd10 f   ICSStreamPropertyPage.obj
 0001:0000ed60       ?OnApplyChanges@CICSStreamPropertyPage@@MAEJXZ 1000fd60 f   ICSStreamPropertyPage.obj
 0001:0000f060       ??1?$CComQIPtr@UIICSStreamEx@@$1?_GUID_db4f25de_dff4_4240_8f95_0d805d7be1f7@@3U__s_GUID@@A@ATL@@QAE@XZ 10010060 f i ICSStreamPropertyPage.obj
 0001:0000f070       ??1?$CComQIPtr@UIICSStreamEx2@@$1?_GUID_0377624f_fbe4_47e1_8f21_b51eadf5f985@@3U__s_GUID@@A@ATL@@QAE@XZ 10010070 f i ICSStreamPropertyPage.obj
 0001:0000f080       _DecodeIMAADPCM            10010080 f   ImaADPCMDecoder.obj
 0001:0000f1f0       ?icview100_decode_picture_header@@YAHPBEHPAUMPEG4context@@@Z 100101f0 f   mpeg4_hdr_decode.obj
 0001:0000f480       ?mpeg4_decode_picture_header@@YAHPBEHPAUMPEG4context@@@Z 10010480 f   mpeg4_hdr_decode.obj
 0001:0000f7e0       ??0MyByteArray@@QAE@XZ     100107e0 f   MyByteArray.obj
 0001:0000f800       ??_EMyByteArray@@UAEPAXI@Z 10010800 f i MyByteArray.obj
 0001:0000f800       ??_GMyByteArray@@UAEPAXI@Z 10010800 f i MyByteArray.obj
 0001:0000f820       ??0MyByteArray@@QAE@PBEH@Z 10010820 f   MyByteArray.obj
 0001:0000f880       ??1MyByteArray@@UAE@XZ     10010880 f   MyByteArray.obj
 0001:0000f8e0       ?AppendBuf@MyByteArray@@QAEXPBEH@Z 100108e0 f   MyByteArray.obj
 0001:0000f920       ?InsertBuf@MyByteArray@@QAEXHPBEH@Z 10010920 f   MyByteArray.obj
 0001:0000f970       ?Find@MyByteArray@@QAEHPBEH@Z 10010970 f   MyByteArray.obj
 0001:0000f9a0       ?MD5Init@@YAXPAUMD5_CTX@@@Z 100109a0 f   PPPMD5.obj
 0001:0000f9d0       ?MD5Update@@YAXPAUMD5_CTX@@PAEI@Z 100109d0 f   PPPMD5.obj
 0001:0000fa70       ?MD5Final@@YAXPAUMD5_CTX@@@Z 10010a70 f   PPPMD5.obj
 0001:000104b0       ??0CPTZController@@QAE@PBDW4TargetType@SdpInfo@@00PAVHttpAgent@@HH0@Z 100114b0 f   PTZController.obj
 0001:00010570       ??_GCPTZController@@UAEPAXI@Z 10011570 f i PTZController.obj
 0001:00010570       ??_ECPTZController@@UAEPAXI@Z 10011570 f i PTZController.obj
 0001:00010590       ??1CPTZController@@UAE@XZ  10011590 f   PTZController.obj
 0001:00010600       ?send_command@CPTZController@@IAEXPBD0_N@Z 10011600 f   PTZController.obj
 0001:000106a0       ?zoom_in@CPTZController@@QAEXXZ 100116a0 f   PTZController.obj
 0001:00010720       ?zoom_out@CPTZController@@QAEXXZ 10011720 f   PTZController.obj
 0001:000107a0       ?zoom_in_step@CPTZController@@QAEXH@Z 100117a0 f   PTZController.obj
 0001:00010830       ?zoom_out_step@CPTZController@@QAEXH@Z 10011830 f   PTZController.obj
 0001:000108c0       ?zoom_in_cont@CPTZController@@QAEXH@Z 100118c0 f   PTZController.obj
 0001:00010950       ?zoom_out_cont@CPTZController@@QAEXH@Z 10011950 f   PTZController.obj
 0001:000109e0       ?zoom_in_stop@CPTZController@@QAEXXZ 100119e0 f   PTZController.obj
 0001:00010a60       ?zoom_out_stop@CPTZController@@QAEXXZ 10011a60 f   PTZController.obj
 0001:00010ae0       ?pan_left@CPTZController@@QAEXH@Z 10011ae0 f   PTZController.obj
 0001:00010b70       ?pan_right@CPTZController@@QAEXH@Z 10011b70 f   PTZController.obj
 0001:00010c00       ?pan_left_cont@CPTZController@@QAEXH@Z 10011c00 f   PTZController.obj
 0001:00010c90       ?pan_right_cont@CPTZController@@QAEXH@Z 10011c90 f   PTZController.obj
 0001:00010d20       ?pan_left_stop@CPTZController@@QAEXXZ 10011d20 f   PTZController.obj
 0001:00010da0       ?pan_right_stop@CPTZController@@QAEXXZ 10011da0 f   PTZController.obj
 0001:00010e20       ?tilt_up@CPTZController@@QAEXH@Z 10011e20 f   PTZController.obj
 0001:00010eb0       ?tilt_down@CPTZController@@QAEXH@Z 10011eb0 f   PTZController.obj
 0001:00010f40       ?tilt_up_cont@CPTZController@@QAEXH@Z 10011f40 f   PTZController.obj
 0001:00010fd0       ?tilt_down_cont@CPTZController@@QAEXH@Z 10011fd0 f   PTZController.obj
 0001:00011060       ?tilt_up_stop@CPTZController@@QAEXXZ 10012060 f   PTZController.obj
 0001:000110e0       ?tilt_down_stop@CPTZController@@QAEXXZ 100120e0 f   PTZController.obj
 0001:00011160       ?auto_pan@CPTZController@@QAEXXZ 10012160 f   PTZController.obj
 0001:000111e0       ?auto_tilt@CPTZController@@QAEXXZ 100121e0 f   PTZController.obj
 0001:00011260       ?auto_pan_tilt@CPTZController@@QAEXXZ 10012260 f   PTZController.obj
 0001:000112e0       ?auto_focus@CPTZController@@QAEXXZ 100122e0 f   PTZController.obj
 0001:00011360       ?set_auto_pan_left_limit@CPTZController@@QAEXXZ 10012360 f   PTZController.obj
 0001:000113e0       ?set_auto_pan_right_limit@CPTZController@@QAEXXZ 100123e0 f   PTZController.obj
 0001:00011460       ?set_auto_tilt_up_limit@CPTZController@@QAEXXZ 10012460 f   PTZController.obj
 0001:000114e0       ?set_auto_tilt_down_limit@CPTZController@@QAEXXZ 100124e0 f   PTZController.obj
 0001:00011560       ?set_preset@CPTZController@@QAEXH@Z 10012560 f   PTZController.obj
 0001:000115e0       ?move_to_preset@CPTZController@@QAEXH@Z 100125e0 f   PTZController.obj
 0001:00011660       ?focus_far@CPTZController@@QAEXXZ 10012660 f   PTZController.obj
 0001:000116e0       ?focus_near@CPTZController@@QAEXXZ 100126e0 f   PTZController.obj
 0001:00011760       ?focus_far@CPTZController@@QAEXH@Z 10012760 f   PTZController.obj
 0001:000117e0       ?focus_near@CPTZController@@QAEXH@Z 100127e0 f   PTZController.obj
 0001:00011860       ?focus_far_cont@CPTZController@@QAEXH@Z 10012860 f   PTZController.obj
 0001:000118e0       ?focus_near_cont@CPTZController@@QAEXH@Z 100128e0 f   PTZController.obj
 0001:00011960       ?focus_far_stop@CPTZController@@QAEXXZ 10012960 f   PTZController.obj
 0001:000119e0       ?focus_near_stop@CPTZController@@QAEXXZ 100129e0 f   PTZController.obj
 0001:00011a60       ?ptz_on@CPTZController@@QAEXXZ 10012a60 f   PTZController.obj
 0001:00011ae0       ?ptz_off@CPTZController@@QAEXXZ 10012ae0 f   PTZController.obj
 0001:00011b60       ?iris_on@CPTZController@@QAEXXZ 10012b60 f   PTZController.obj
 0001:00011be0       ?iris_off@CPTZController@@QAEXXZ 10012be0 f   PTZController.obj
 0001:00011c60       ?auto_iris@CPTZController@@QAEXXZ 10012c60 f   PTZController.obj
 0001:00011ce0       ?set_pan_speed@CPTZController@@QAEXH@Z 10012ce0 f   PTZController.obj
 0001:00011d60       ?set_tilt_speed@CPTZController@@QAEXH@Z 10012d60 f   PTZController.obj
 0001:00011de0       ?set_zoom_speed@CPTZController@@QAEXH@Z 10012de0 f   PTZController.obj
 0001:00011e60       ?set_position@CPTZController@@QAEXH@Z 10012e60 f   PTZController.obj
 0001:00011ee0       ?move_to_position@CPTZController@@QAEXH@Z 10012ee0 f   PTZController.obj
 0001:00011f60       ?set_position_name@CPTZController@@QAEXHPBD@Z 10012f60 f   PTZController.obj
 0001:00012000       ?custom_command@CPTZController@@QAEXPBD@Z 10013000 f   PTZController.obj
 0001:000120a0       ?update_position@CPTZController@@QAEXXZ 100130a0 f   PTZController.obj
 0001:00012120       ?move_center@CPTZController@@QAEXHHHH@Z 10013120 f   PTZController.obj
 0001:000121b0       ?run_ext_device@CPTZController@@QAEXHH_N@Z 100131b0 f   PTZController.obj
 0001:00012250       ?reset_limit@CPTZController@@QAEXXZ 10013250 f   PTZController.obj
 0001:000122d0       ?return_home@CPTZController@@QAEXXZ 100132d0 f   PTZController.obj
 0001:00012350       ?night_on@CPTZController@@QAEXXZ 10013350 f   PTZController.obj
 0001:000123d0       ?night_off@CPTZController@@QAEXXZ 100133d0 f   PTZController.obj
 0001:00012450       ?remove_channel_info@CPTZController@@IBEXAAVCString@@@Z 10013450 f   PTZController.obj
 0001:000124c0       ??0Queue@@QAE@H@Z          100134c0 f   Queue.obj
 0001:00012560       ??1Queue@@QAE@XZ           10013560 f   Queue.obj
 0001:000125f0       ?qsize@Queue@@QBEHXZ       100135f0 f   Queue.obj
 0001:00012650       ?empty@Queue@@QBE_NXZ      10013650 f   Queue.obj
 0001:000126b0       ?full@Queue@@QBE_NXZ       100136b0 f   Queue.obj
 0001:00012710       ?put@Queue@@QAE_NPAX_N@Z   10013710 f   Queue.obj
 0001:000127d0       ?put_nowait@Queue@@QAE_NPAX@Z 100137d0 f   Queue.obj
 0001:000127e0       ?put_front@Queue@@QAE_NPAX_N@Z 100137e0 f   Queue.obj
 0001:000128a0       ?put_front_nowait@Queue@@QAE_NPAX@Z 100138a0 f   Queue.obj
 0001:000128b0       ?get@Queue@@QAEPAX_N@Z     100138b0 f   Queue.obj
 0001:00012960       ?get_nowait@Queue@@QAEPAXXZ 10013960 f   Queue.obj
 0001:00012970       ?_init@Queue@@IAEXH@Z      10013970 f   Queue.obj
 0001:00012980       ?_qsize@Queue@@IBEHXZ      10013980 f   Queue.obj
 0001:00012990       ?_empty@Queue@@IBE_NXZ     10013990 f   Queue.obj
 0001:000129a0       ?_full@Queue@@IBE_NXZ      100139a0 f   Queue.obj
 0001:000129c0       ?_put@Queue@@IAEXPAX@Z     100139c0 f   Queue.obj
 0001:00012a40       ?_put_front@Queue@@IAEXPAX@Z 10013a40 f   Queue.obj
 0001:00012ad0       ?_get@Queue@@IAEPAXXZ      10013ad0 f   Queue.obj
 0001:00012b40       ??1?$CList@PAXPAX@@UAE@XZ  10013b40 f i Queue.obj
 0001:00012bb0       ?Serialize@?$CList@PAXPAX@@UAEXAAVCArchive@@@Z 10013bb0 f i Queue.obj
 0001:00012cd0       ??_G?$CList@PAXPAX@@UAEPAXI@Z 10013cd0 f i Queue.obj
 0001:00012cd0       ??_E?$CList@PAXPAX@@UAEPAXI@Z 10013cd0 f i Queue.obj
 0001:00012cf0       ??1CCritSec@@QAE@XZ        10013cf0 f i Queue.obj
 0001:00012d00       ??0RTPClient@@QAE@XZ       10013d00 f   RTPClient.obj
 0001:00012d60       ??_ERTPClient@@UAEPAXI@Z   10013d60 f i RTPClient.obj
 0001:00012d60       ??_GRTPClient@@UAEPAXI@Z   10013d60 f i RTPClient.obj
 0001:00012d80       ??1RTPClient@@UAE@XZ       10013d80 f   RTPClient.obj
 0001:00012dd0       ?init@RTPClient@@QAEXPAH0_N@Z 10013dd0 f   RTPClient.obj
 0001:00012e00       ?stop@RTPClient@@QAEXXZ    10013e00 f   RTPClient.obj
 0001:00012e40       ?allocate_ports@RTPClient@@IAEXPAH0@Z 10013e40 f   RTPClient.obj
 0001:00012f30       ?get_rtp_sock@RTPClient@@QBEIXZ 10013f30 f   RTPClient.obj
 0001:00012f40       ?get_rtcp_sock@RTPClient@@QBEIXZ 10013f40 f   RTPClient.obj
 0001:00012f50       ?unpack_data@RTPClient@@QAEPBEPBEPAH11@Z 10013f50 f   RTPClient.obj
 0001:00012fc0       ?peek_data@RTPClient@@QAEHPBEPAH11@Z 10013fc0 f   RTPClient.obj
 0001:00013030       ?unpack_rtcp_packet@RTPClient@@QAE?AW4RtcpType@1@PBEH@Z 10014030 f   RTPClient.obj
 0001:00013120       ?send_rtcp@RTPClient@@QAE_NPBDHHHHH0@Z 10014120 f   RTPClient.obj
 0001:00013290       ?unpack_sr@RTPClient@@IAEXPBE@Z 10014290 f   RTPClient.obj
 0001:000132a0       ?unpack_rr@RTPClient@@IAEXPBE@Z 100142a0 f   RTPClient.obj
 0001:000132b0       ?unpack_sdes@RTPClient@@IAEXPBE@Z 100142b0 f   RTPClient.obj
 0001:000132e0       ?analyze_sdes_item@RTPClient@@IAEPBEPBE@Z 100142e0 f   RTPClient.obj
 0001:000133f0       ?unpack_bye@RTPClient@@IAEXPBE@Z 100143f0 f   RTPClient.obj
 0001:00013400       ?unpack_app@RTPClient@@IAEXPBE@Z 10014400 f   RTPClient.obj
 0001:00013410       ?send_req_through_rtcp@RTPClient@@QAE_NPBDHABVCByteArray@@@Z 10014410 f   RTPClient.obj
 0001:000134b0       ?get_server_time@RTPClient@@QBE?AVCOleDateTime@@XZ 100144b0 f   RTPClient.obj
 0001:00013540       ?make_rtcp_packet@RTPClient@@QAE_NHHHHAAVCByteArray@@@Z 10014540 f   RTPClient.obj
 0001:00013610       ??0RTPThread@@QAE@PAVCICSStreamFilter@@PAVRTSPThread@@@Z 10014610 f   RTPThread.obj
 0001:000136f0       ??_GRTPThread@@UAEPAXI@Z   100146f0 f i RTPThread.obj
 0001:000136f0       ??_ERTPThread@@UAEPAXI@Z   100146f0 f i RTPThread.obj
 0001:00013710       ??1RTPThread@@UAE@XZ       10014710 f   RTPThread.obj
 0001:00013790       ?init_rtp@RTPThread@@QAEXPAH0_N@Z 10014790 f   RTPThread.obj
 0001:000137a0       ?start@RTPThread@@QAEXW4TargetType@SdpInfo@@W4VideoCodec@3@W4AudioCodec@3@H_N3@Z 100147a0 f   RTPThread.obj
 0001:00013820       ?notify_abnormal_stop@RTPThread@@QAEXXZ 10014820 f   RTPThread.obj
 0001:00013830       ?stop@RTPThread@@QAEHXZ    10014830 f   RTPThread.obj
 0001:00013860       ?put_rtp_data@RTPThread@@QAEXPBEH@Z 10014860 f   RTPThread.obj
 0001:00013970       ?put_rtcp_data@RTPThread@@QAEXPBEH@Z 10014970 f   RTPThread.obj
 0001:000139d0       ?is_alive@RTPThread@@QBE_NXZ 100149d0 f   RTPThread.obj
 0001:000139e0       ?reset_session_info@RTPThread@@IAEXXZ 100149e0 f   RTPThread.obj
 0001:00013a30       ?output_rtp_info@RTPThread@@IAEX_N@Z 10014a30 f   RTPThread.obj
 0001:00013a40       ?output_session_result@RTPThread@@IAEX_N@Z 10014a40 f   RTPThread.obj
 0001:00013a50       ?check_session@RTPThread@@IAE_NKH@Z 10014a50 f   RTPThread.obj
 0001:00013ac0       ?signal_check_session@RTPThread@@QAE_N_N@Z 10014ac0 f   RTPThread.obj
 0001:00013b00       ?get_server_time@RTPThread@@QBENXZ 10014b00 f   RTPThread.obj
 0001:00013b40       ?get_stream_time@RTPThread@@QBENXZ 10014b40 f   RTPThread.obj
 0001:00013b80       ?set_stream_time@RTPThread@@QAEXABN@Z 10014b80 f   RTPThread.obj
 0001:00013ba0       ?clear_wait_list@RTPThread@@IAEXXZ 10014ba0 f   RTPThread.obj
 0001:00013be0       ?reorder_data@RTPThread@@IAEXXZ 10014be0 f   RTPThread.obj
 0001:00013f90       ?send_rtcp@RTPThread@@IAE_NW4RTCPState@1@HH_N@Z 10014f90 f   RTPThread.obj
 0001:00014060       ?wait_thread_end@RTPThread@@QAEXXZ 10015060 f   RTPThread.obj
 0001:00014070       ?get_session_id@RTPThread@@QAEABVCString@@XZ 10015070 f   RTPThread.obj
 0001:000140a0       ?adjust_rtcp_time@RTPThread@@QAEXXZ 100150a0 f   RTPThread.obj
 0001:00014100       ?is_reconnect_timeout@RTPThread@@QAE_NK@Z 10015100 f   RTPThread.obj
 0001:00014130       ?is_rtp_timeout@RTPThread@@QAE_NK@Z 10015130 f   RTPThread.obj
 0001:00014150       ?on_session_count@RTPThread@@IAEXXZ 10015150 f   RTPThread.obj
 0001:00014170       ?on_no_video@RTPThread@@QBEX_N@Z 10015170 f   RTPThread.obj
 0001:00014190       ?send_rtcp@RTPThread@@QAE_NK_N@Z 10015190 f   RTPThread.obj
 0001:00014310       ?is_rtcp_send_time@RTPThread@@QAE_NK@Z 10015310 f   RTPThread.obj
 0001:00014320       ?on_congestion@RTPThread@@QAEXK@Z 10015320 f   RTPThread.obj
 0001:00014350       ?get_frame_rate@RTPThread@@QBEMXZ 10015350 f   RTPThread.obj
 0001:00014360       ?disable_timeout@RTPThread@@QAEXXZ 10015360 f   RTPThread.obj
 0001:00014370       ??1?$CAutoPtr@VMyByteArray@@@@QAE@XZ 10015370 f i RTPThread.obj
 0001:00014390       ?Free@?$CAutoPtr@VMyByteArray@@@@QAEXXZ 10015390 f i RTPThread.obj
 0001:000143b0       ??1?$CList@II@@UAE@XZ      100153b0 f i RTPThread.obj
 0001:00014420       ?Serialize@?$CList@II@@UAEXAAVCArchive@@@Z 10015420 f i RTPThread.obj
 0001:00014540       ??_E?$CList@II@@UAEPAXI@Z  10015540 f i RTPThread.obj
 0001:00014540       ??_G?$CList@II@@UAEPAXI@Z  10015540 f i RTPThread.obj
 0001:00014560       ?RemoveAll@?$CList@II@@QAEXXZ 10015560 f i RTPThread.obj
 0001:00014590       ?NewNode@?$CList@II@@IAEPAUCNode@1@PAU21@0@Z 10015590 f i RTPThread.obj
 0001:00014600       ??3CObject@@SGXPAX@Z       10015600 f i RTPThread.obj
 0001:00014610       ??1RTPThreadData@RTPThread@@QAE@XZ 10015610 f i RTPThread.obj
 0001:00014680       ??0RTSPClient@@QAE@XZ      10015680 f   RTSPClient.obj
 0001:00014ab0       ??_F?$CMap@VCString@@PBDW4State@RTSPClient@@W423@@@QAEXXZ 10015ab0 f i RTSPClient.obj
 0001:00014ac0       ??1RTSPClient@@QAE@XZ      10015ac0 f   RTSPClient.obj
 0001:00014bc0       ?cleanup@RTSPClient@@IAEXXZ 10015bc0 f   RTSPClient.obj
 0001:00014cf0       ?get_state@RTSPClient@@QBE?AW4State@1@XZ 10015cf0 f   RTSPClient.obj
 0001:00014d00       ?get_server_addr@RTSPClient@@QBEPBDXZ 10015d00 f   RTSPClient.obj
 0001:00014d10       ?get_server_rtp_port@RTSPClient@@QBEHXZ 10015d10 f   RTSPClient.obj
 0001:00014d20       ?get_server_rtcp_port@RTSPClient@@QBEHXZ 10015d20 f   RTSPClient.obj
 0001:00014d30       ?get_session_name@RTSPClient@@QBEPBDXZ 10015d30 f   RTSPClient.obj
 0001:00014d50       ?get_real_ip@RTSPClient@@QBEPBDXZ 10015d50 f   RTSPClient.obj
 0001:00014d70       ?get_http_port@RTSPClient@@QBEHXZ 10015d70 f   RTSPClient.obj
 0001:00014d90       ?get_ndtp_port@RTSPClient@@QBEHXZ 10015d90 f   RTSPClient.obj
 0001:00014db0       ?get_audio_permission@RTSPClient@@QBEHXZ 10015db0 f   RTSPClient.obj
 0001:00014dd0       ?get_talk_permission@RTSPClient@@QBEHXZ 10015dd0 f   RTSPClient.obj
 0001:00014df0       ?get_ptz_permission@RTSPClient@@QBEHXZ 10015df0 f   RTSPClient.obj
 0001:00014e10       ?is_talk_possible@RTSPClient@@QBE_NXZ 10015e10 f   RTSPClient.obj
 0001:00014e30       ?get_target_type@RTSPClient@@QBE?AW4TargetType@SdpInfo@@_N@Z 10015e30 f   RTSPClient.obj
 0001:00014ee0       ?get_video_codec@RTSPClient@@QBE?AW4VideoCodec@SdpInfo@@XZ 10015ee0 f   RTSPClient.obj
 0001:00014f00       ?get_biaudio_codec@RTSPClient@@QBE?AW4AudioCodec@SdpInfo@@XZ 10015f00 f   RTSPClient.obj
 0001:00014f20       ?get_audio_codec@RTSPClient@@QBE?AW4AudioCodec@SdpInfo@@XZ 10015f20 f   RTSPClient.obj
 0001:00014f40       ?get_audio_block_size@RTSPClient@@QBEHXZ 10015f40 f   RTSPClient.obj
 0001:00014f60       ?get_dvr_ch_start@RTSPClient@@QBEFXZ 10015f60 f   RTSPClient.obj
 0001:00014f80       ?get_dvr_ch_end@RTSPClient@@QBEFXZ 10015f80 f   RTSPClient.obj
 0001:00014fa0       ?is_valid_cap_info@RTSPClient@@QBE_NXZ 10015fa0 f   RTSPClient.obj
 0001:00014fc0       ?is_dvr_supported@RTSPClient@@QBEHXZ 10015fc0 f   RTSPClient.obj
 0001:00015000       ?start@RTSPClient@@QAEXPBDHHI@Z 10016000 f   RTSPClient.obj
 0001:00015180       ?stop@RTSPClient@@QAEXH@Z  10016180 f   RTSPClient.obj
 0001:00015230       ?is_alive@RTSPClient@@QBE_NXZ 10016230 f   RTSPClient.obj
 0001:00015240       ?request_rtsp_over_http@RTSPClient@@QAE_NPBDH@Z 10016240 f   RTSPClient.obj
 0001:000155c0       ?describe@RTSPClient@@QAEXPBD0@Z 100165c0 f   RTSPClient.obj
 0001:00015920       ?setup@RTSPClient@@QAEXHPBDHHHPAVRTPThread@@@Z 10016920 f   RTSPClient.obj
 0001:00015c80       ?play@RTSPClient@@QAEXXZ   10016c80 f   RTSPClient.obj
 0001:00015e00       ?teardown@RTSPClient@@QAEXH@Z 10016e00 f   RTSPClient.obj
 0001:00015f30       ?check_method@RTSPClient@@IAEXPBD@Z 10016f30 f   RTSPClient.obj
 0001:00016020       ?change_state@RTSPClient@@IAEXPBD@Z 10017020 f   RTSPClient.obj
 0001:00016090       ?parse_transport_info@RTSPClient@@IAEXPBD@Z 10017090 f   RTSPClient.obj
 0001:00016300       ?parse_udp_parameters@RTSPClient@@IAE_NABVCStringList@@@Z 10017300 f   RTSPClient.obj
 0001:000164f0       ?parse_tcp_parameters@RTSPClient@@IAE_NABVCStringList@@@Z 100174f0 f   RTSPClient.obj
 0001:000166e0       ?parse_rtp_info@RTSPClient@@IAEXPBD@Z 100176e0 f   RTSPClient.obj
 0001:00016820       ?send_request@RTSPClient@@IAEXPBDPBVCMapStringToString@@_N0@Z 10017820 f   RTSPClient.obj
 0001:00016c90       ?recv_thread_entry@RTSPClient@@KAIPAV1@@Z 10017c90 f   RTSPClient.obj
 0001:00016cc0       ?recv_thread_init@RTSPClient@@IAEHXZ 10017cc0 f   RTSPClient.obj
 0001:00016d70       ?recv_thread_run@RTSPClient@@IAEXXZ 10017d70 f   RTSPClient.obj
 0001:00016e20       ?recv_thread_exit@RTSPClient@@IAEXXZ 10017e20 f   RTSPClient.obj
 0001:00016e80       ?completion_routine@RTSPClient@@KGXKKPAU_OVERLAPPED@@K@Z 10017e80 f   RTSPClient.obj
 0001:00016f20       ?retrieve_msg@RTSPClient@@IAEXXZ 10017f20 f   RTSPClient.obj
 0001:000173d0       ?recv_response@RTSPClient@@IAEPAXH@Z 100183d0 f   RTSPClient.obj
 0001:00017530       ?send_interleaved_data@RTSPClient@@QAEXPBEGEPBD@Z 10018530 f   RTSPClient.obj
 0001:000176d0       ?reset_rtsp_over_http@RTSPClient@@IAEX_NPBD1H@Z 100186d0 f   RTSPClient.obj
 0001:00017720       ?close_post_channel@RTSPClient@@QAEXXZ 10018720 f   RTSPClient.obj
 0001:00017750       ?open_post_channel@RTSPClient@@IAE_NPBDH@Z 10018750 f   RTSPClient.obj
 0001:00017940       ?send_post_header@RTSPClient@@IAEXXZ 10018940 f   RTSPClient.obj
 0001:00017ba0       ?is_rec_admin@RTSPClient@@QBE_NXZ 10018ba0 f   RTSPClient.obj
 0001:00017bc0       ?has_video_source@RTSPClient@@QBE_NXZ 10018bc0 f   RTSPClient.obj
 0001:00017be0       ?has_video_signal@RTSPClient@@QBE_NXZ 10018be0 f   RTSPClient.obj
 0001:00017c00       ?on_disconnection@RTSPClient@@IAEXXZ 10018c00 f   RTSPClient.obj
 0001:00017c30       ?get_target_version@RTSPClient@@QBEXPAH00@Z 10018c30 f   RTSPClient.obj
 0001:00017c50       ?is_encrypted@RTSPClient@@QBE_NXZ 10018c50 f   RTSPClient.obj
 0001:00017c70       ?get_encrypt_key_number@RTSPClient@@QBEHXZ 10018c70 f   RTSPClient.obj
 0001:00017c90       ?is_audio_encrypted@RTSPClient@@QBE_NXZ 10018c90 f   RTSPClient.obj
 0001:00017cb0       ?is_video_encrypted@RTSPClient@@QBE_NXZ 10018cb0 f   RTSPClient.obj
 0001:00017cd0       ?get_auth_capability@RTSPClient@@QBEHXZ 10018cd0 f   RTSPClient.obj
 0001:00017cf0       ?handle_server_request@RTSPClient@@IAEXPBVRTSPRequest@@@Z 10018cf0 f   RTSPClient.obj
 0001:00017dc0       ??1?$CAutoPtr@VSDP@@@@QAE@XZ 10018dc0 f i RTSPClient.obj
 0001:00017de0       ??1?$CAutoPtr@VQueue@@@@QAE@XZ 10018de0 f i RTSPClient.obj
 0001:00017e10       ??1?$CAutoPtr@VHTTPResponse@@@@QAE@XZ 10018e10 f i RTSPClient.obj
 0001:00017e30       ??1?$CAutoPtr@VRTSPResponse@@@@QAE@XZ 10018e30 f i RTSPClient.obj
 0001:00017e50       ??1?$CAutoPtr@VRTSPRequest@@@@QAE@XZ 10018e50 f i RTSPClient.obj
 0001:00017e70       ??0?$CMap@VCString@@PBDW4State@RTSPClient@@W423@@@QAE@H@Z 10018e70 f i RTSPClient.obj
 0001:00017ea0       ??A?$CMap@VCString@@PBDW4State@RTSPClient@@W423@@@QAEAAW4State@RTSPClient@@PBD@Z 10018ea0 f i RTSPClient.obj
 0001:00017fa0       ??1?$CMap@VCString@@PBDW4State@RTSPClient@@W423@@@UAE@XZ 10018fa0 f i RTSPClient.obj
 0001:00018040       ?Serialize@?$CMap@VCString@@PBDW4State@RTSPClient@@W423@@@UAEXAAVCArchive@@@Z 10019040 f i RTSPClient.obj
 0001:00018260       ??_G?$CMap@VCString@@PBDW4State@RTSPClient@@W423@@@UAEPAXI@Z 10019260 f i RTSPClient.obj
 0001:00018260       ??_E?$CMap@VCString@@PBDW4State@RTSPClient@@W423@@@UAEPAXI@Z 10019260 f i RTSPClient.obj
 0001:00018280       ?InitHashTable@?$CMap@VCString@@PBDW4State@RTSPClient@@W423@@@QAEXIH@Z 10019280 f i RTSPClient.obj
 0001:000182f0       ?NewAssoc@?$CMap@VCString@@PBDW4State@RTSPClient@@W423@@@IAEPAUCAssoc@1@XZ 100192f0 f i RTSPClient.obj
 0001:00018360       ?GetAssocAt@?$CMap@VCString@@PBDW4State@RTSPClient@@W423@@@IBEPAUCAssoc@1@PBDAAI@Z 10019360 f i RTSPClient.obj
 0001:000183c0       ??0RTSPError@@QAE@W4RTSPERROR@@@Z 100193c0 f   RTSPError.obj
 0001:000183e0       ??0RTSPError@@QAE@W4RTSPERROR@@PBD@Z 100193e0 f   RTSPError.obj
 0001:00018430       ??0RTSPError@@QAE@W4RTSPERROR@@I@Z 10019430 f   RTSPError.obj
 0001:00018460       ??1RTSPError@@UAE@XZ       10019460 f   RTSPError.obj
 0001:00018470       ?get_value@RTSPError@@QBEPBDXZ 10019470 f   RTSPError.obj
 0001:00018480       ??0RTSPMessage@@QAE@XZ     10019480 f   RTSPMessage.obj
 0001:000184d0       ??_ERTSPMessage@@UAEPAXI@Z 100194d0 f i RTSPMessage.obj
 0001:000184d0       ??_GRTSPMessage@@UAEPAXI@Z 100194d0 f i RTSPMessage.obj
 0001:000184f0       ??1RTSPMessage@@UAE@XZ     100194f0 f   RTSPMessage.obj
 0001:00018550       ?get_header_value@RTSPMessage@@QBE?AVCString@@PBD@Z 10019550 f   RTSPMessage.obj
 0001:00018640       ?get_body@RTSPMessage@@QBEABVMyByteArray@@XZ 10019640 f   RTSPMessage.obj
 0001:00018650       ?set_body@RTSPMessage@@QAEXPBEH@Z 10019650 f   RTSPMessage.obj
 0001:00018680       ?parse_headers@RTSPMessage@@IAEXABVCStringList@@@Z 10019680 f   RTSPMessage.obj
 0001:000187b0       ?check_rtsp_version@RTSPMessage@@IBEXPBD@Z 100197b0 f   RTSPMessage.obj
 0001:000189b0       ??0RTSPRequest@@QAE@PBD@Z  100199b0 f   RTSPRequest.obj
 0001:00018a20       ??_GRTSPRequest@@UAEPAXI@Z 10019a20 f i RTSPRequest.obj
 0001:00018a20       ??_ERTSPRequest@@UAEPAXI@Z 10019a20 f i RTSPRequest.obj
 0001:00018a40       ??1RTSPRequest@@UAE@XZ     10019a40 f   RTSPRequest.obj
 0001:00018aa0       ?get_method@RTSPRequest@@QBE?AVCString@@XZ 10019aa0 f   RTSPRequest.obj
 0001:00018ac0       ?is_rtsp_req@RTSPRequest@@SA_NPBD@Z 10019ac0 f   RTSPRequest.obj
 0001:00018c70       ?parse_request@RTSPRequest@@IAEXPBD@Z 10019c70 f   RTSPRequest.obj
 0001:00018d90       ?parse_request_line@RTSPRequest@@IAEXPBD@Z 10019d90 f   RTSPRequest.obj
 0001:00018f40       ?get_param_string@RTSPRequest@@QBE?AVCString@@XZ 10019f40 f   RTSPRequest.obj
 0001:00019110       ??0RTSPResponse@@QAE@PBD@Z 1001a110 f   RTSPResponse.obj
 0001:00019180       ??_ERTSPResponse@@UAEPAXI@Z 1001a180 f i RTSPResponse.obj
 0001:00019180       ??_GRTSPResponse@@UAEPAXI@Z 1001a180 f i RTSPResponse.obj
 0001:000191a0       ??1RTSPResponse@@UAE@XZ    1001a1a0 f   RTSPResponse.obj
 0001:00019200       ?get_status@RTSPResponse@@QBEHXZ 1001a200 f   RTSPResponse.obj
 0001:00019210       ?is_success@RTSPResponse@@QBE_NXZ 1001a210 f   RTSPResponse.obj
 0001:00019230       ?get_reason@RTSPResponse@@QBEABVCString@@XZ 1001a230 f   RTSPResponse.obj
 0001:00019240       ?parse_response@RTSPResponse@@IAEXPBD@Z 1001a240 f   RTSPResponse.obj
 0001:00019360       ?parse_status_line@RTSPResponse@@IAEXPBD@Z 1001a360 f   RTSPResponse.obj
 0001:00019530       ?to_string@RTSPResponse@@QBE?AVCString@@XZ 1001a530 f   RTSPResponse.obj
 0001:000196f0       ?is_rtsp_resp@RTSPResponse@@SA_NPBD@Z 1001a6f0 f   RTSPResponse.obj
 0001:00019780       ??0RTSPThread@@QAE@PAUIRTSPThreadCallback@@@Z 1001a780 f   RTSPThread.obj
 0001:000198c0       ??_ERTSPThread@@UAEPAXI@Z  1001a8c0 f i RTSPThread.obj
 0001:000198c0       ??_GRTSPThread@@UAEPAXI@Z  1001a8c0 f i RTSPThread.obj
 0001:000198e0       ??1RTSPThread@@UAE@XZ      1001a8e0 f   RTSPThread.obj
 0001:000199b0       ?get_state@RTSPThread@@QBE?AW4State@1@XZ 1001a9b0 f   RTSPThread.obj
 0001:000199c0       ?set_state@RTSPThread@@IAEXW4State@1@J@Z 1001a9c0 f   RTSPThread.obj
 0001:000199e0       ?start@RTSPThread@@QAEXXZ  1001a9e0 f   RTSPThread.obj
 0001:00019a30       ?RTSPThreadProc@RTSPThread@@KGJPAV1@@Z 1001aa30 f   RTSPThread.obj
 0001:00019a60       ?RTSPThreadInit@RTSPThread@@IAEHXZ 1001aa60 f   RTSPThread.obj
 0001:00019af0       ?RTSPThreadRun@RTSPThread@@IAEXXZ 1001aaf0 f   RTSPThread.obj
 0001:00019c90       ?RTSPThreadExit@RTSPThread@@IAEXXZ 1001ac90 f   RTSPThread.obj
 0001:00019d40       ?poll_connection@RTSPThread@@IAEXXZ 1001ad40 f   RTSPThread.obj
 0001:00019ef0       ?fsm_init@RTSPThread@@IAE_NPAUParams@1@@Z 1001aef0 f   RTSPThread.obj
 0001:00019f40       ?fsm_connecting@RTSPThread@@IAE_NPAUParams@1@@Z 1001af40 f   RTSPThread.obj
 0001:0001a060       ?fsm_connected@RTSPThread@@IAE_NPAUParams@1@@Z 1001b060 f   RTSPThread.obj
 0001:0001a0b0       ?fsm_authenticating@RTSPThread@@IAE_NPAUParams@1@@Z 1001b0b0 f   RTSPThread.obj
 0001:0001a1c0       ?fsm_waiting_auth@RTSPThread@@IAE_NPAUParams@1@@Z 1001b1c0 f   RTSPThread.obj
 0001:0001a210       ?fsm_authenticated@RTSPThread@@IAE_NPAUParams@1@@Z 1001b210 f   RTSPThread.obj
 0001:0001a260       ?fsm_encrypt_authenticating@RTSPThread@@IAE_NPAUParams@1@@Z 1001b260 f   RTSPThread.obj
 0001:0001a330       ?fsm_waiting_encrypt_auth@RTSPThread@@IAE_NPAUParams@1@@Z 1001b330 f   RTSPThread.obj
 0001:0001a380       ?fsm_encrypt_authenticated@RTSPThread@@IAE_NPAUParams@1@@Z 1001b380 f   RTSPThread.obj
 0001:0001a3d0       ?fsm_playing@RTSPThread@@IAE_NPAUParams@1@@Z 1001b3d0 f   RTSPThread.obj
 0001:0001a3f0       ?fsm_played@RTSPThread@@IAE_NPAUParams@1@@Z 1001b3f0 f   RTSPThread.obj
 0001:0001a430       ?fsm_stopping@RTSPThread@@IAE_NPAUParams@1@@Z 1001b430 f   RTSPThread.obj
 0001:0001a4a0       ?connect@RTSPThread@@QAEXPBDIFH_N@Z 1001b4a0 f   RTSPThread.obj
 0001:0001a580       ?connect@RTSPThread@@IAE_NPAUParams@1@@Z 1001b580 f   RTSPThread.obj
 0001:0001a730       ?request_rtsp_over_http@RTSPThread@@IAE_NXZ 1001b730 f   RTSPThread.obj
 0001:0001a7f0       ?authenticate@RTSPThread@@QAEXPBD000H@Z 1001b7f0 f   RTSPThread.obj
 0001:0001a960       ?authenticate@RTSPThread@@IAEXPAUParams@1@@Z 1001b960 f   RTSPThread.obj
 0001:0001aa80       ?setup_and_pass_encrypt@RTSPThread@@QAEXHPBDHPAVRTPThread@@H@Z 1001ba80 f   RTSPThread.obj
 0001:0001ab80       ?encrypt_authenticate@RTSPThread@@IAEXPAUParams@1@@Z 1001bb80 f   RTSPThread.obj
 0001:0001acb0       ??0Encrypted@@QAE@ABV0@@Z  1001bcb0 f i RTSPThread.obj
 0001:0001acf0       ?play@RTSPThread@@QAEXXZ   1001bcf0 f   RTSPThread.obj
 0001:0001ad60       ?play@RTSPThread@@IAEXPAUParams@1@@Z 1001bd60 f   RTSPThread.obj
 0001:0001ad80       ?stop@RTSPThread@@QAEHHH@Z 1001bd80 f   RTSPThread.obj
 0001:0001ae00       ?stop@RTSPThread@@IAEXPAUParams@1@@Z 1001be00 f   RTSPThread.obj
 0001:0001ae50       ?kill@RTSPThread@@QAEXXZ   1001be50 f   RTSPThread.obj
 0001:0001aec0       ?send_interleaved_data@RTSPThread@@QAEXPBEGEPBD@Z 1001bec0 f   RTSPThread.obj
 0001:0001afd0       ?send_interleaved_data@RTSPThread@@IAEXPAUParams@1@@Z 1001bfd0 f   RTSPThread.obj
 0001:0001b040       ?get_username@RTSPThread@@IBEABVCString@@XZ 1001c040 f   RTSPThread.obj
 0001:0001b050       ?get_key_string@RTSPThread@@IBEABVCString@@XZ 1001c050 f   RTSPThread.obj
 0001:0001b060       ??1?$CAutoPtr@UParams@RTSPThread@@@@QAE@XZ 1001c060 f i RTSPThread.obj
 0001:0001b080       ??_9@$BBM@AG               1001c080 f i RTSPThread.obj
 0001:0001b090       ??_9@$BCA@AG               1001c090 f i RTSPThread.obj
 0001:0001b0a0       ??_9@$BA@AG                1001c0a0 f i RTSPThread.obj
 0001:0001b0b0       ??_9@$BCE@AG               1001c0b0 f i RTSPThread.obj
 0001:0001b0c0       ??_9@$B3AG                 1001c0c0 f i RTSPThread.obj
 0001:0001b0d0       ??_9@$B7AG                 1001c0d0 f i RTSPThread.obj
 0001:0001b0e0       ??_9@$BCM@AG               1001c0e0 f i RTSPThread.obj
 0001:0001b0f0       ??_9@$BM@AG                1001c0f0 f i RTSPThread.obj
 0001:0001b100       ??_9@$BBA@AG               1001c100 f i RTSPThread.obj
 0001:0001b110       ??_9@$BBE@AG               1001c110 f i RTSPThread.obj
 0001:0001b120       ??_9@$BBI@AG               1001c120 f i RTSPThread.obj
 0001:0001b130       ??1Params@RTSPThread@@UAE@XZ 1001c130 f i RTSPThread.obj
 0001:0001b140       ??_EParams@RTSPThread@@UAEPAXI@Z 1001c140 f i RTSPThread.obj
 0001:0001b140       ??_GParams@RTSPThread@@UAEPAXI@Z 1001c140 f i RTSPThread.obj
 0001:0001b160       ??_EStopParams@RTSPThread@@UAEPAXI@Z 1001c160 f i RTSPThread.obj
 0001:0001b160       ??_GStopParams@RTSPThread@@UAEPAXI@Z 1001c160 f i RTSPThread.obj
 0001:0001b180       ??_EConnectParams@RTSPThread@@UAEPAXI@Z 1001c180 f i RTSPThread.obj
 0001:0001b180       ??_GConnectParams@RTSPThread@@UAEPAXI@Z 1001c180 f i RTSPThread.obj
 0001:0001b1a0       ??_GAuthParams@RTSPThread@@UAEPAXI@Z 1001c1a0 f i RTSPThread.obj
 0001:0001b1a0       ??_EAuthParams@RTSPThread@@UAEPAXI@Z 1001c1a0 f i RTSPThread.obj
 0001:0001b1c0       ??_ESetupParams@RTSPThread@@UAEPAXI@Z 1001c1c0 f i RTSPThread.obj
 0001:0001b1c0       ??_GSetupParams@RTSPThread@@UAEPAXI@Z 1001c1c0 f i RTSPThread.obj
 0001:0001b1e0       ??_EDataParams@RTSPThread@@UAEPAXI@Z 1001c1e0 f i RTSPThread.obj
 0001:0001b1e0       ??_GDataParams@RTSPThread@@UAEPAXI@Z 1001c1e0 f i RTSPThread.obj
 0001:0001b200       ??1StopParams@RTSPThread@@UAE@XZ 1001c200 f i RTSPThread.obj
 0001:0001b210       ??1ConnectParams@RTSPThread@@UAE@XZ 1001c210 f i RTSPThread.obj
 0001:0001b260       ??1AuthParams@RTSPThread@@UAE@XZ 1001c260 f i RTSPThread.obj
 0001:0001b2d0       ??1SetupParams@RTSPThread@@UAE@XZ 1001c2d0 f i RTSPThread.obj
 0001:0001b320       ??1DataParams@RTSPThread@@UAE@XZ 1001c320 f i RTSPThread.obj
 0001:0001b370       ??_EEncrypted@@UAEPAXI@Z   1001c370 f i RTSPThread.obj
 0001:0001b370       ??_GEncrypted@@UAEPAXI@Z   1001c370 f i RTSPThread.obj
 0001:0001b390       ??1Encrypted@@UAE@XZ       1001c390 f i RTSPThread.obj
 0001:0001b3a0       ??0SDP@@QAE@PBDH@Z         1001c3a0 f   SDP.obj
 0001:0001b540       ??_ESDP@@UAEPAXI@Z         1001c540 f i SDP.obj
 0001:0001b540       ??_GSDP@@UAEPAXI@Z         1001c540 f i SDP.obj
 0001:0001b560       ??1SDP@@UAE@XZ             1001c560 f   SDP.obj
 0001:0001b600       ?parse_data@SDP@@IAEXPBD@Z 1001c600 f   SDP.obj
 0001:0001b720       ?parse_unknown_phase@SDP@@IAEXDABVCString@@@Z 1001c720 f   SDP.obj
 0001:0001b740       ?parse_session_phase@SDP@@IAEXDABVCString@@@Z 1001c740 f   SDP.obj
 0001:0001b7f0       ?parse_media_phase@SDP@@IAEXDABVCString@@@Z 1001c7f0 f   SDP.obj
 0001:0001b820       ?get_target_version@SDP@@QBEXPAH00@Z 1001c820 f   SDP.obj
 0001:0001b850       ?parse_v@SDP@@IAEXABVCString@@@Z 1001c850 f   SDP.obj
 0001:0001b860       ?parse_s@SDP@@IAEXABVCString@@@Z 1001c860 f   SDP.obj
 0001:0001b870       ?parse_o@SDP@@IAEXABVCString@@@Z 1001c870 f   SDP.obj
 0001:0001ba80       ?parse_i@SDP@@IAEXABVCString@@@Z 1001ca80 f   SDP.obj
 0001:0001bf00       ?parse_sa@SDP@@IAEXABVCString@@@Z 1001cf00 f   SDP.obj
 0001:0001c970       ?parse_dst_date@SDP@@IAEXABVCString@@@Z 1001d970 f   SDP.obj
 0001:0001ca70       ?parse_date_time@SDP@@IAEXABVCString@@AAH11111@Z 1001da70 f   SDP.obj
 0001:0001cbe0       ?parse_u@SDP@@IAEXABVCString@@@Z 1001dbe0 f   SDP.obj
 0001:0001cbf0       ?parse_m@SDP@@IAEXABVCString@@@Z 1001dbf0 f   SDP.obj
 0001:0001cc00       ?parse_a@SDP@@IAEXABVCString@@@Z 1001dc00 f   SDP.obj
 0001:0001cce0       ?parse_k@SDP@@IAEXABVCString@@@Z 1001dce0 f   SDP.obj
 0001:0001cf40       ?get_talk_permission@SDP@@QAEHXZ 1001df40 f   SDP.obj
 0001:0001cf60       ?get_audio_permission@SDP@@QBEHXZ 1001df60 f   SDP.obj
 0001:0001cf70       ?get_ptz_permission@SDP@@QBEHXZ 1001df70 f   SDP.obj
 0001:0001cf80       ?is_dvr_supported@SDP@@QBE_NXZ 1001df80 f   SDP.obj
 0001:0001cfa0       ?is_dvr_enhanced_supported@SDP@@QBE_NXZ 1001dfa0 f   SDP.obj
 0001:0001cfe0       ?is_multi_profile_supported@SDP@@QBE_NXZ 1001dfe0 f   SDP.obj
 0001:0001cff0       ?is_userinfo_encoding_supported@SDP@@QBE_NXZ 1001dff0 f   SDP.obj
 0001:0001d000       ?is_https_supported@SDP@@QBE_NXZ 1001e000 f   SDP.obj
 0001:0001d010       ?is_memory_record_supported@SDP@@QBE_NXZ 1001e010 f   SDP.obj
 0001:0001d020       ?is_http_stream_supported@SDP@@QBE_NXZ 1001e020 f   SDP.obj
 0001:0001d030       ?get_web_port@SDP@@QBEHXZ  1001e030 f   SDP.obj
 0001:0001d050       ?is_rec_session@SDP@@QBE_NXZ 1001e050 f   SDP.obj
 0001:0001d0a0       ?get_daylight_saving_from@SDP@@QBEXAAH00000@Z 1001e0a0 f   SDP.obj
 0001:0001d0f0       ?get_daylight_saving_to@SDP@@QBEXAAH00000@Z 1001e0f0 f   SDP.obj
 0001:0001d140       ?GetSAVersion@SDP@@QBEXPAH00@Z 1001e140 f   SDP.obj
 0001:0001d1c0       ?my_new@@YAPAXIPBDI0@Z     1001e1c0 f   StdAfx.obj
 0001:0001d290       ?my_delete@@YAXPAXPBDI1@Z  1001e290 f   StdAfx.obj
 0001:0001d330       ??0UnwrapThread@@QAE@PAVCICSStreamFilter@@@Z 1001e330 f   UnwrapThread.obj
 0001:0001d450       ??_GUnwrapThread@@UAEPAXI@Z 1001e450 f i UnwrapThread.obj
 0001:0001d450       ??_EUnwrapThread@@UAEPAXI@Z 1001e450 f i UnwrapThread.obj
 0001:0001d470       ??1UnwrapThread@@UAE@XZ    1001e470 f   UnwrapThread.obj
 0001:0001d550       ?start@UnwrapThread@@QAEXW4TargetType@SdpInfo@@W4VideoCodec@3@W4AudioCodec@3@HPAVRTPThread@@_N@Z 1001e550 f   UnwrapThread.obj
 0001:0001d5a0       ?stop@UnwrapThread@@QAEXXZ 1001e5a0 f   UnwrapThread.obj
 0001:0001d600       ?stop_pause@UnwrapThread@@QAEXXZ 1001e600 f   UnwrapThread.obj
 0001:0001d620       ?pass_data@UnwrapThread@@QAE_NAAV?$CAutoPtr@VMyByteArray@@@@HHH@Z 1001e620 f   UnwrapThread.obj
 0001:0001d740       ?get_stream_time@UnwrapThread@@QBENXZ 1001e740 f   UnwrapThread.obj
 0001:0001d7a0       ?set_stream_time@UnwrapThread@@QAEXABN@Z 1001e7a0 f   UnwrapThread.obj
 0001:0001d810       ?UnwrapThreadInit@UnwrapThread@@IAE_NXZ 1001e810 f   UnwrapThread.obj
 0001:0001d8f0       ?UnwrapThreadRun@UnwrapThread@@IAEXXZ 1001e8f0 f   UnwrapThread.obj
 0001:0001d9e0       ??_GUnwrapData@UnwrapThread@@QAEPAXI@Z 1001e9e0 f i UnwrapThread.obj
 0001:0001da00       ??1UnwrapData@UnwrapThread@@QAE@XZ 1001ea00 f i UnwrapThread.obj
 0001:0001da20       ?UnwrapThreadExit@UnwrapThread@@IAEXXZ 1001ea20 f   UnwrapThread.obj
 0001:0001daf0       ?UnwrapThreadProc@UnwrapThread@@KAIPAV1@@Z 1001eaf0 f   UnwrapThread.obj
 0001:0001db20       ?play_stream_440@UnwrapThread@@IAEXPAEJ@Z 1001eb20 f   UnwrapThread.obj
 0001:0001dfd0       ?wait_thread_start@UnwrapThread@@QAEXXZ 1001efd0 f   UnwrapThread.obj
 0001:0001e000       ?update_frame_times@UnwrapThread@@IAEXK@Z 1001f000 f   UnwrapThread.obj
 0001:0001e130       ?get_frame_rate@UnwrapThread@@QBEMXZ 1001f130 f   UnwrapThread.obj
 0001:0001e180       ?is_video_timeout@UnwrapThread@@QAE_NK@Z 1001f180 f   UnwrapThread.obj
 0001:0001e1d0       ?reset_video_timeout@UnwrapThread@@QAEXK@Z 1001f1d0 f   UnwrapThread.obj
 0001:0001e200       ?is_reconnect_timeout@UnwrapThread@@QAE_NK@Z 1001f200 f   UnwrapThread.obj
 0001:0001e2c0       ?clear@UnwrapThread@@IAEXXZ 1001f2c0 f   UnwrapThread.obj
 0001:0001e3b0       ?fire_error@UnwrapThread@@IAEXJPBD@Z 1001f3b0 f   UnwrapThread.obj
 0001:0001e420       ?disable_timeout@UnwrapThread@@QAEXXZ 1001f420 f   UnwrapThread.obj
 0001:0001e430       ?wait_thread_end@UnwrapThread@@QAEXXZ 1001f430 f   UnwrapThread.obj
 0001:0001e470       ?is_alive@UnwrapThread@@QBE_NXZ 1001f470 f   UnwrapThread.obj
 0001:0001e480       ??0?$CAutoPtr@VMyByteArray@@@@QAE@AAV0@@Z 1001f480 f i UnwrapThread.obj
 0001:0001e4a0       ??1?$CAutoPtr@UUnwrapData@UnwrapThread@@@@QAE@XZ 1001f4a0 f i UnwrapThread.obj
 0001:0001e4d0       ??1?$CList@KK@@UAE@XZ      1001f4d0 f i UnwrapThread.obj
 0001:0001e540       ?Serialize@?$CList@KK@@UAEXAAVCArchive@@@Z 1001f540 f i UnwrapThread.obj
 0001:0001e660       ??_G?$CList@KK@@UAEPAXI@Z  1001f660 f i UnwrapThread.obj
 0001:0001e660       ??_E?$CList@KK@@UAEPAXI@Z  1001f660 f i UnwrapThread.obj
 0001:0001e700       ?read_lines@@YAXPBDAAVCStringList@@@Z 1001f700 f   utils.obj
 0001:0001e800       ?string_split_whitespace@@YAXPBDHAAVCStringList@@@Z 1001f800 f   utils.obj
 0001:0001e950       ?string_split@@YAXPBD0HAAVCStringList@@@Z 1001f950 f   utils.obj
 0001:0001ead0       ?mem_find@@YAHPBEH0H@Z     1001fad0 f   utils.obj
 0001:0001eb40       ?get_module_dir@@YAPBDXZ   1001fb40 f   utils.obj
 0001:0001eb90       ?is_higher_or_equal_version@@YA_NHHHHHH@Z 1001fb90 f   utils.obj
 0001:0001ebd0       ?raise_error@@YAXXZ        1001fbd0 f   utils.obj
 0001:0001ebe0       ?Dec_DecryptVideoData@@YAHHPADH@Z 1001fbe0 f   utils.obj
 0001:0001ec10       ??0CVideoMemoryPool@@QAE@XZ 1001fc10 f   VideoMemoryPool.obj
 0001:0001eca0       ??_ECVideoMemoryPool@@UAEPAXI@Z 1001fca0 f i VideoMemoryPool.obj
 0001:0001eca0       ??_GCVideoMemoryPool@@UAEPAXI@Z 1001fca0 f i VideoMemoryPool.obj
 0001:0001ecc0       ??1CVideoMemoryPool@@UAE@XZ 1001fcc0 f   VideoMemoryPool.obj
 0001:0001ee30       ?GetPoolNode@CVideoMemoryPool@@QAEPAUtVIDEODATADEF@@I@Z 1001fe30 f   VideoMemoryPool.obj
 0001:0001f180       ?ReleasePoolNode@CVideoMemoryPool@@QAE_NPAUtVIDEODATADEF@@@Z 10020180 f   VideoMemoryPool.obj
 0001:0001f390       ?TakeFreeListNode@?$CMemStack@V?$MEMPOOLITEM@$0IAAA@@@$00@@AAEPAUMEMLIST@1@XZ 10020390 f i VideoMemoryPool.obj
 0001:0001f3b0       ?AddFreeListNode@?$CMemStack@V?$MEMPOOLITEM@$0BAAAA@@@$00@@AAE_NPAUMEMLIST@1@@Z 100203b0 f i VideoMemoryPool.obj
 0001:0001f3f0       ?TakeFreeListNode@?$CMemStack@V?$MEMPOOLITEM@$0BAAAA@@@$00@@AAEPAUMEMLIST@1@XZ 100203f0 f i VideoMemoryPool.obj
 0001:0001f410       ?AddFreeListNode@?$CMemStack@V?$MEMPOOLITEM@$0CAAAA@@@$00@@AAE_NPAUMEMLIST@1@@Z 10020410 f i VideoMemoryPool.obj
 0001:0001f450       ?TakeFreeListNode@?$CMemStack@V?$MEMPOOLITEM@$0CAAAA@@@$00@@AAEPAUMEMLIST@1@XZ 10020450 f i VideoMemoryPool.obj
 0001:0001f470       ?AddFreeListNode@?$CMemStack@V?$MEMPOOLITEM@$0EAAAA@@@$00@@AAE_NPAUMEMLIST@1@@Z 10020470 f i VideoMemoryPool.obj
 0001:0001f4b0       ?TakeFreeListNode@?$CMemStack@V?$MEMPOOLITEM@$0EAAAA@@@$00@@AAEPAUMEMLIST@1@XZ 100204b0 f i VideoMemoryPool.obj
 0001:0001f4d0       ??0CVideoQueue@@QAE@H@Z    100204d0 f   VideoQueue.obj
 0001:0001f590       ??_ECVideoQueue@@UAEPAXI@Z 10020590 f i VideoQueue.obj
 0001:0001f590       ??_GCVideoQueue@@UAEPAXI@Z 10020590 f i VideoQueue.obj
 0001:0001f5b0       ??1CVideoQueue@@UAE@XZ     100205b0 f   VideoQueue.obj
 0001:0001f620       ?PutQueue@CVideoQueue@@QAE_NPAUtVIDEODATADEF@@@Z 10020620 f   VideoQueue.obj
 0001:0001f710       ?getQueData@CVideoQueue@@IAEPAUtVIDEODATADEF@@XZ 10020710 f   VideoQueue.obj
 0001:0001f740       ?GetQueue@CVideoQueue@@QAEPAUtVIDEODATADEF@@XZ 10020740 f   VideoQueue.obj
 0001:0001f7a0       ?ReleasePool@CVideoQueue@@QAE_NPAUtVIDEODATADEF@@@Z 100207a0 f   VideoQueue.obj
 0001:0001f7c0       ?AddTail@CVideoQueue@@IAE_NPAUtVIDEODATADEF@@@Z 100207c0 f   VideoQueue.obj
 0001:0001f860       ?RemoveNode@CVideoQueue@@IAE_NPAUtQUEPOOLNODE@@@Z 10020860 f   VideoQueue.obj
 0001:0001f8f0       ?RemoveBFrames@CVideoQueue@@IAE_NXZ 100208f0 f   VideoQueue.obj
 0001:0001f930       ?RemovePFrames@CVideoQueue@@IAE_NXZ 10020930 f   VideoQueue.obj
 0001:0001f980       ?RemoveExtraFrames@CVideoQueue@@QAE_NXZ 10020980 f   VideoQueue.obj
 0001:0001fa00       ?ClearQueue@CVideoQueue@@QAE_NXZ 10020a00 f   VideoQueue.obj
 0001:0001fac0       ?IsFull@CVideoQueue@@QAE_NXZ 10020ac0 f   VideoQueue.obj
 0001:0001fad0       ?IsEmpty@CVideoQueue@@QAE_NXZ 10020ad0 f   VideoQueue.obj
 0001:0001fae0       ?GetPoolNode@CVideoQueue@@QAEPAUtVIDEODATADEF@@I@Z 10020ae0 f   VideoQueue.obj
 0001:0001fb00       _timeKillEvent@4           10020b00 f   winmm:WINMM.dll
 0001:0001fb06       _timeSetEvent@20           10020b06 f   winmm:WINMM.dll
 0001:0001fb0c       _timeGetTime@0             10020b0c f   winmm:WINMM.dll
 0001:0001fb20       ??0CClassFactory@@QAE@PBVCFactoryTemplate@@@Z 10020b20 f   strmbase:dllentry.obj
 0001:0001fb50       ?QueryInterface@CClassFactory@@UAGJABU_GUID@@PAPAX@Z 10020b50 f   strmbase:dllentry.obj
 0001:0001fbc0       ?AddRef@CClassFactory@@UAGKXZ 10020bc0 f   strmbase:dllentry.obj
 0001:0001fbd0       ?Release@CClassFactory@@UAGKXZ 10020bd0 f   strmbase:dllentry.obj
 0001:0001fc00       ??1CClassFactory@@QAE@XZ   10020c00 f i strmbase:dllentry.obj
 0001:0001fc20       ?CreateInstance@CClassFactory@@UAGJPAUIUnknown@@ABU_GUID@@PAPAX@Z 10020c20 f   strmbase:dllentry.obj
 0001:0001fcd0       ?LockServer@CClassFactory@@UAGJH@Z 10020cd0 f   strmbase:dllentry.obj
 0001:0001fd00       _DllGetClassObject@12      10020d00 f   strmbase:dllentry.obj
 0001:0001fdb0       ?DllInitClasses@@YAXH@Z    10020db0 f   strmbase:dllentry.obj
 0001:0001fdf0       _DllCanUnloadNow@0         10020df0 f   strmbase:dllentry.obj
 0001:0001fe10       _DllEntryPoint@12          10020e10 f   strmbase:dllentry.obj
 0001:0001fe80       ??0CSource@@QAE@PADPAUIUnknown@@U_GUID@@@Z 10020e80 f   strmbase:source.obj
 0001:0001fed0       ??_GCSource@@UAEPAXI@Z     10020ed0 f i strmbase:source.obj
 0001:0001fed0       ??_ECSource@@UAEPAXI@Z     10020ed0 f i strmbase:source.obj
 0001:0001fef0       ??0CSource@@QAE@PADPAUIUnknown@@U_GUID@@PAJ@Z 10020ef0 f   strmbase:source.obj
 0001:0001ff40       ??1CSource@@UAE@XZ         10020f40 f   strmbase:source.obj
 0001:0001ffd0       ?AddPin@CSource@@QAEJPAVCSourceStream@@@Z 10020fd0 f   strmbase:source.obj
 0001:000200b0       ?RemovePin@CSource@@QAEJPAVCSourceStream@@@Z 100210b0 f   strmbase:source.obj
 0001:00020130       ?FindPin@CSource@@UAGJPBGPAPAUIPin@@@Z 10021130 f   strmbase:source.obj
 0001:00020190       ?FindPinNumber@CSource@@QAEHPAUIPin@@@Z 10021190 f   strmbase:source.obj
 0001:000201d0       ?GetPinCount@CSource@@UAEHXZ 100211d0 f   strmbase:source.obj
 0001:000201f0       ?GetPin@CSource@@UAEPAVCBasePin@@H@Z 100211f0 f   strmbase:source.obj
 0001:00020250       ?QueryId@CSourceStream@@MAGJPAPAG@Z 10021250 f   strmbase:source.obj
 0001:000202c0       ??0CSourceStream@@QAE@PADPAJPAVCSource@@PBG@Z 100212c0 f   strmbase:source.obj
 0001:00020360       ??_ECSourceStream@@UAEPAXI@Z 10021360 f i strmbase:source.obj
 0001:00020360       ??_GCSourceStream@@UAEPAXI@Z 10021360 f i strmbase:source.obj
 0001:00020380       ??1CBaseOutputPin@@UAE@XZ  10021380 f i strmbase:source.obj
 0001:00020390       ??1CSourceStream@@UAE@XZ   10021390 f   strmbase:source.obj
 0001:00020410       ?CheckMediaType@CSourceStream@@MAEJPBVCMediaType@@@Z 10021410 f   strmbase:source.obj
 0001:000204d0       ?GetMediaType@CSourceStream@@MAEJHPAVCMediaType@@@Z 100214d0 f   strmbase:source.obj
 0001:00020580       ?Active@CSourceStream@@MAEJXZ 10021580 f   strmbase:source.obj
 0001:000206c0       ?Inactive@CSourceStream@@MAEJXZ 100216c0 f   strmbase:source.obj
 0001:000207d0       ?ThreadProc@CSourceStream@@MAEKXZ 100217d0 f   strmbase:source.obj
 0001:00020890       ?DoBufferProcessingLoop@CSourceStream@@MAEJXZ 10021890 f   strmbase:source.obj
 0001:00020990       ??_ECSourceStream@@WEI@AEPAXI@Z 10021990 f i strmbase:source.obj
 0001:000209a0       ?QueryInterface@CBaseFilter@@W3AGJABU_GUID@@PAPAX@Z 100219a0 f i strmbase:source.obj
 0001:000209b0       ?AddRef@CBaseFilter@@W3AGKXZ 100219b0 f i strmbase:source.obj
 0001:000209c0       ?Release@CBaseFilter@@W3AGKXZ 100219c0 f i strmbase:source.obj
 0001:000209d0       ?QueryInterface@CBaseFilter@@UAGJABU_GUID@@PAPAX@Z 100219d0 f i strmbase:source.obj
 0001:000209e0       ?AddRef@CBaseFilter@@UAGKXZ 100219e0 f i strmbase:source.obj
 0001:000209f0       ?Release@CBaseFilter@@UAGKXZ 100219f0 f i strmbase:source.obj
 0001:00020a00       ?OnThreadCreate@CSourceStream@@MAEJXZ 10021a00 f i strmbase:source.obj
 0001:00020a10       ?OnThreadDestroy@CSourceStream@@MAEJXZ 10021a10 f i strmbase:source.obj
 0001:00020a20       ?OnThreadStartPlay@CSourceStream@@MAEJXZ 10021a20 f i strmbase:source.obj
 0001:00020a30       _CreateMemoryAllocator@4   10021a30 f   strmbase:amfilter.obj
 0001:00020a50       _CreatePosPassThru@16      10021a50 f   strmbase:amfilter.obj
 0001:00020af0       ??0CBaseMediaFilter@@QAE@PBDPAUIUnknown@@PAVCCritSec@@ABU_GUID@@@Z 10021af0 f   strmbase:amfilter.obj
 0001:00020b40       ??1CBaseMediaFilter@@UAE@XZ 10021b40 f   strmbase:amfilter.obj
 0001:00020ba0       ?NonDelegatingQueryInterface@CBaseMediaFilter@@UAGJABU_GUID@@PAPAX@Z 10021ba0 f   strmbase:amfilter.obj
 0001:00020c20       ?GetClassID@CBaseMediaFilter@@UAGJPAU_GUID@@@Z 10021c20 f   strmbase:amfilter.obj
 0001:00020c60       ?GetState@CBaseMediaFilter@@UAGJKPAW4_FilterState@@@Z 10021c60 f   strmbase:amfilter.obj
 0001:00020c80       ?SetSyncSource@CBaseMediaFilter@@UAGJPAUIReferenceClock@@@Z 10021c80 f   strmbase:amfilter.obj
 0001:00020cf0       ?GetSyncSource@CBaseMediaFilter@@UAGJPAPAUIReferenceClock@@@Z 10021cf0 f   strmbase:amfilter.obj
 0001:00020d80       ?Stop@CBaseMediaFilter@@UAGJXZ 10021d80 f   strmbase:amfilter.obj
 0001:00020db0       ?Pause@CBaseMediaFilter@@UAGJXZ 10021db0 f   strmbase:amfilter.obj
 0001:00020de0       ?Run@CBaseMediaFilter@@UAGJ_J@Z 10021de0 f   strmbase:amfilter.obj
 0001:00020e80       ?StreamTime@CBaseMediaFilter@@UAEJAAVCRefTime@@@Z 10021e80 f   strmbase:amfilter.obj
 0001:00020ec0       ?NonDelegatingQueryInterface@CBaseFilter@@UAGJABU_GUID@@PAPAX@Z 10021ec0 f   strmbase:amfilter.obj
 0001:00020fa0       ??0CBaseFilter@@QAE@PBDPAUIUnknown@@PAVCCritSec@@ABU_GUID@@@Z 10021fa0 f   strmbase:amfilter.obj
 0001:00021000       ??0CBaseFilter@@QAE@PADPAUIUnknown@@PAVCCritSec@@ABU_GUID@@PAJ@Z 10022000 f   strmbase:amfilter.obj
 0001:00021060       ??1CBaseFilter@@UAE@XZ     10022060 f   strmbase:amfilter.obj
 0001:000210d0       ?GetClassID@CBaseFilter@@UAGJPAU_GUID@@@Z 100220d0 f   strmbase:amfilter.obj
 0001:00021110       ?GetState@CBaseFilter@@UAGJKPAW4_FilterState@@@Z 10022110 f   strmbase:amfilter.obj
 0001:00021130       ?SetSyncSource@CBaseFilter@@UAGJPAUIReferenceClock@@@Z 10022130 f   strmbase:amfilter.obj
 0001:000211a0       ?GetSyncSource@CBaseFilter@@UAGJPAPAUIReferenceClock@@@Z 100221a0 f   strmbase:amfilter.obj
 0001:00021230       ?Stop@CBaseFilter@@UAGJXZ  10022230 f   strmbase:amfilter.obj
 0001:000212e0       ?Pause@CBaseFilter@@UAGJXZ 100222e0 f   strmbase:amfilter.obj
 0001:00021390       ??1CUnknown@@UAE@XZ        10022390 f i strmbase:amfilter.obj
 0001:000213b0       ?Run@CBaseFilter@@UAGJ_J@Z 100223b0 f   strmbase:amfilter.obj
 0001:000214a0       ?StreamTime@CBaseFilter@@UAEJAAVCRefTime@@@Z 100224a0 f   strmbase:amfilter.obj
 0001:000214e0       ?EnumPins@CBaseFilter@@UAGJPAPAUIEnumPins@@@Z 100224e0 f   strmbase:amfilter.obj
 0001:00021570       ?FindPin@CBaseFilter@@UAGJPBGPAPAUIPin@@@Z 10022570 f   strmbase:amfilter.obj
 0001:00021630       ?QueryFilterInfo@CBaseFilter@@UAGJPAU_FilterInfo@@@Z 10022630 f   strmbase:amfilter.obj
 0001:00021680       ?JoinFilterGraph@CBaseFilter@@UAGJPAUIFilterGraph@@PBG@Z 10022680 f   strmbase:amfilter.obj
 0001:00021760       ?QueryVendorInfo@CBaseFilter@@UAGJPAPAG@Z 10022760 f   strmbase:amfilter.obj
 0001:00021770       ?NotifyEvent@CBaseFilter@@UAEJJJJ@Z 10022770 f   strmbase:amfilter.obj
 0001:000217c0       ?ReconnectPin@CBaseFilter@@QAEJPAUIPin@@PBU_AMMediaType@@@Z 100227c0 f   strmbase:amfilter.obj
 0001:00021830       ?GetPinVersion@CBaseFilter@@UAEJXZ 10022830 f   strmbase:amfilter.obj
 0001:00021840       ?IncrementPinVersion@CBaseFilter@@QAEXXZ 10022840 f   strmbase:amfilter.obj
 0001:00021850       ?Register@CBaseFilter@@UAGJXZ 10022850 f   strmbase:amfilter.obj
 0001:000218c0       ?Unregister@CBaseFilter@@UAGJXZ 100228c0 f   strmbase:amfilter.obj
 0001:00021940       ??0CEnumPins@@QAE@PAVCBaseFilter@@PAV0@@Z 10022940 f   strmbase:amfilter.obj
 0001:00021a00       ??_ECEnumPins@@UAEPAXI@Z   10022a00 f i strmbase:amfilter.obj
 0001:00021a00       ??_GCEnumPins@@UAEPAXI@Z   10022a00 f i strmbase:amfilter.obj
 0001:00021a20       ??1?$CGenericList@VCBasePin@@@@QAE@XZ 10022a20 f i strmbase:amfilter.obj
 0001:00021a30       ??1CEnumPins@@UAE@XZ       10022a30 f   strmbase:amfilter.obj
 0001:00021a90       ?QueryInterface@CEnumPins@@UAGJABU_GUID@@PAPAX@Z 10022a90 f   strmbase:amfilter.obj
 0001:00021af0       ?AddRef@CEnumPins@@UAGKXZ  10022af0 f   strmbase:amfilter.obj
 0001:00021b10       ?Release@CEnumPins@@UAGKXZ 10022b10 f   strmbase:amfilter.obj
 0001:00021b40       ?Clone@CEnumPins@@UAGJPAPAUIEnumPins@@@Z 10022b40 f   strmbase:amfilter.obj
 0001:00021be0       ?Next@CEnumPins@@UAGJKPAPAUIPin@@PAK@Z 10022be0 f   strmbase:amfilter.obj
 0001:00021cf0       ?Skip@CEnumPins@@UAGJK@Z   10022cf0 f   strmbase:amfilter.obj
 0001:00021d30       ?Reset@CEnumPins@@UAGJXZ   10022d30 f   strmbase:amfilter.obj
 0001:00021d60       ?Refresh@CEnumPins@@AAGJXZ 10022d60 f   strmbase:amfilter.obj
 0001:00021d90       ??0CEnumMediaTypes@@QAE@PAVCBasePin@@PAV0@@Z 10022d90 f   strmbase:amfilter.obj
 0001:00021df0       ??_GCEnumMediaTypes@@UAEPAXI@Z 10022df0 f i strmbase:amfilter.obj
 0001:00021df0       ??_ECEnumMediaTypes@@UAEPAXI@Z 10022df0 f i strmbase:amfilter.obj
 0001:00021e10       ??1CEnumMediaTypes@@UAE@XZ 10022e10 f   strmbase:amfilter.obj
 0001:00021e30       ?QueryInterface@CEnumMediaTypes@@UAGJABU_GUID@@PAPAX@Z 10022e30 f   strmbase:amfilter.obj
 0001:00021e90       ?AddRef@CEnumMediaTypes@@UAGKXZ 10022e90 f   strmbase:amfilter.obj
 0001:00021eb0       ?Release@CEnumMediaTypes@@UAGKXZ 10022eb0 f   strmbase:amfilter.obj
 0001:00021ee0       ?Clone@CEnumMediaTypes@@UAGJPAPAUIEnumMediaTypes@@@Z 10022ee0 f   strmbase:amfilter.obj
 0001:00021f80       ?Next@CEnumMediaTypes@@UAGJKPAPAU_AMMediaType@@PAK@Z 10022f80 f   strmbase:amfilter.obj
 0001:00022100       ?Skip@CEnumMediaTypes@@UAGJK@Z 10023100 f   strmbase:amfilter.obj
 0001:000221c0       ?Reset@CEnumMediaTypes@@UAGJXZ 100231c0 f   strmbase:amfilter.obj
 0001:000221e0       ??0CBasePin@@QAE@PADPAVCBaseFilter@@PAVCCritSec@@PAJPBGW4_PinDirection@@@Z 100231e0 f   strmbase:amfilter.obj
 0001:000222d0       ??1CBasePin@@UAE@XZ        100232d0 f   strmbase:amfilter.obj
 0001:00022330       ?NonDelegatingQueryInterface@CBasePin@@UAGJABU_GUID@@PAPAX@Z 10023330 f   strmbase:amfilter.obj
 0001:000223b0       ?NonDelegatingAddRef@CBasePin@@UAGKXZ 100233b0 f   strmbase:amfilter.obj
 0001:000223d0       ?NonDelegatingRelease@CBasePin@@UAGKXZ 100233d0 f   strmbase:amfilter.obj
 0001:000223f0       ?Connect@CBasePin@@UAGJPAUIPin@@PBU_AMMediaType@@@Z 100233f0 f   strmbase:amfilter.obj
 0001:00022500       ?AttemptConnection@CBasePin@@IAEJPAUIPin@@PBVCMediaType@@@Z 10023500 f   strmbase:amfilter.obj
 0001:000225b0       ?TryMediaTypes@CBasePin@@IAEJPAUIPin@@PBVCMediaType@@PAUIEnumMediaTypes@@@Z 100235b0 f   strmbase:amfilter.obj
 0001:00022690       ?AgreeMediaType@CBasePin@@IAEJPAUIPin@@PBVCMediaType@@@Z 10023690 f   strmbase:amfilter.obj
 0001:00022770       ?CompleteConnect@CBasePin@@UAEJPAUIPin@@@Z 10023770 f   strmbase:amfilter.obj
 0001:00022780       ?SetMediaType@CBasePin@@UAEJPBVCMediaType@@@Z 10023780 f   strmbase:amfilter.obj
 0001:000227a0       ?CheckConnect@CBasePin@@UAEJPAUIPin@@@Z 100237a0 f   strmbase:amfilter.obj
 0001:000227d0       ?BreakConnect@CBasePin@@UAEJXZ 100237d0 f   strmbase:amfilter.obj
 0001:000227e0       ?ReceiveConnection@CBasePin@@UAGJPAUIPin@@PBU_AMMediaType@@@Z 100237e0 f   strmbase:amfilter.obj
 0001:00022940       ?Disconnect@CBasePin@@UAGJXZ 10023940 f   strmbase:amfilter.obj
 0001:000229d0       ?DisconnectInternal@CBasePin@@IAGJXZ 100239d0 f   strmbase:amfilter.obj
 0001:00022a10       ?ConnectedTo@CBasePin@@UAGJPAPAUIPin@@@Z 10023a10 f   strmbase:amfilter.obj
 0001:00022a40       ?ConnectionMediaType@CBasePin@@UAGJPAU_AMMediaType@@@Z 10023a40 f   strmbase:amfilter.obj
 0001:00022af0       ?QueryPinInfo@CBasePin@@UAGJPAU_PinInfo@@@Z 10023af0 f   strmbase:amfilter.obj
 0001:00022b60       ?QueryDirection@CBasePin@@UAGJPAW4_PinDirection@@@Z 10023b60 f   strmbase:amfilter.obj
 0001:00022b80       ?QueryId@CBasePin@@UAGJPAPAG@Z 10023b80 f   strmbase:amfilter.obj
 0001:00022b90       ?QueryAccept@CBasePin@@UAGJPBU_AMMediaType@@@Z 10023b90 f   strmbase:amfilter.obj
 0001:00022bc0       ?EnumMediaTypes@CBasePin@@UAGJPAPAUIEnumMediaTypes@@@Z 10023bc0 f   strmbase:amfilter.obj
 0001:00022c50       ?GetMediaType@CBasePin@@UAEJHPAVCMediaType@@@Z 10023c50 f   strmbase:amfilter.obj
 0001:00022c60       ?GetMediaTypeVersion@CBasePin@@UAEJXZ 10023c60 f   strmbase:amfilter.obj
 0001:00022c70       ?IncrementTypeVersion@CBasePin@@QAEXXZ 10023c70 f   strmbase:amfilter.obj
 0001:00022c80       ?Active@CBasePin@@UAEJXZ   10023c80 f   strmbase:amfilter.obj
 0001:00022c90       ?Run@CBasePin@@UAEJ_J@Z    10023c90 f   strmbase:amfilter.obj
 0001:00022ca0       ?Inactive@CBasePin@@UAEJXZ 10023ca0 f   strmbase:amfilter.obj
 0001:00022cb0       ?EndOfStream@CBasePin@@UAGJXZ 10023cb0 f   strmbase:amfilter.obj
 0001:00022cc0       ?SetSink@CBasePin@@UAGJPAUIQualityControl@@@Z 10023cc0 f   strmbase:amfilter.obj
 0001:00022cf0       ?Notify@CBasePin@@UAGJPAUIBaseFilter@@UtagQuality@@@Z 10023cf0 f   strmbase:amfilter.obj
 0001:00022d00       ?NewSegment@CBasePin@@UAGJ_J0N@Z 10023d00 f   strmbase:amfilter.obj
 0001:00022d40       ??0CBaseOutputPin@@QAE@PADPAVCBaseFilter@@PAVCCritSec@@PAJPBG@Z 10023d40 f   strmbase:amfilter.obj
 0001:00022d80       ?CompleteConnect@CBaseOutputPin@@UAEJPAUIPin@@@Z 10023d80 f   strmbase:amfilter.obj
 0001:00022da0       ?CheckConnect@CBaseOutputPin@@UAEJPAUIPin@@@Z 10023da0 f   strmbase:amfilter.obj
 0001:00022de0       ?BreakConnect@CBaseOutputPin@@UAEJXZ 10023de0 f   strmbase:amfilter.obj
 0001:00022e30       ?InitAllocator@CBaseOutputPin@@UAEJPAPAUIMemAllocator@@@Z 10023e30 f   strmbase:amfilter.obj
 0001:00022e40       ?DecideAllocator@CBaseOutputPin@@UAEJPAUIMemInputPin@@PAPAUIMemAllocator@@@Z 10023e40 f   strmbase:amfilter.obj
 0001:00022f40       ?GetDeliveryBuffer@CBaseOutputPin@@UAEJPAPAUIMediaSample@@PA_J1K@Z 10023f40 f   strmbase:amfilter.obj
 0001:00022f70       ?Deliver@CBaseOutputPin@@UAEJPAUIMediaSample@@@Z 10023f70 f   strmbase:amfilter.obj
 0001:00022f90       ?DeliverEndOfStream@CBaseOutputPin@@UAEJXZ 10023f90 f   strmbase:amfilter.obj
 0001:00022fb0       ?Active@CBaseOutputPin@@UAEJXZ 10023fb0 f   strmbase:amfilter.obj
 0001:00022fd0       ?Inactive@CBaseOutputPin@@UAEJXZ 10023fd0 f   strmbase:amfilter.obj
 0001:00022ff0       ?EndOfStream@CBaseOutputPin@@UAGJXZ 10023ff0 f   strmbase:amfilter.obj
 0001:00023000       ?BeginFlush@CBaseOutputPin@@UAGJXZ 10024000 f   strmbase:amfilter.obj
 0001:00023010       ?EndFlush@CBaseOutputPin@@UAGJXZ 10024010 f   strmbase:amfilter.obj
 0001:00023020       ?DeliverBeginFlush@CBaseOutputPin@@UAEJXZ 10024020 f   strmbase:amfilter.obj
 0001:00023040       ?DeliverEndFlush@CBaseOutputPin@@UAEJXZ 10024040 f   strmbase:amfilter.obj
 0001:00023060       ?DeliverNewSegment@CBaseOutputPin@@UAEJ_J0N@Z 10024060 f   strmbase:amfilter.obj
 0001:000230a0       ??0CBaseInputPin@@QAE@PADPAVCBaseFilter@@PAVCCritSec@@PAJPBG@Z 100240a0 f   strmbase:amfilter.obj
 0001:00023100       ??1CBaseInputPin@@UAE@XZ   10024100 f   strmbase:amfilter.obj
 0001:00023160       ?NonDelegatingQueryInterface@CBaseInputPin@@UAGJABU_GUID@@PAPAX@Z 10024160 f   strmbase:amfilter.obj
 0001:000231b0       ?GetAllocator@CBaseInputPin@@UAGJPAPAUIMemAllocator@@@Z 100241b0 f   strmbase:amfilter.obj
 0001:00023240       ?NotifyAllocator@CBaseInputPin@@UAGJPAUIMemAllocator@@H@Z 10024240 f   strmbase:amfilter.obj
 0001:000232c0       ?BreakConnect@CBaseInputPin@@UAEJXZ 100242c0 f   strmbase:amfilter.obj
 0001:00023300       ?Receive@CBaseInputPin@@UAGJPAUIMediaSample@@@Z 10024300 f   strmbase:amfilter.obj
 0001:00023470       ?ReceiveMultiple@CBaseInputPin@@UAGJPAPAUIMediaSample@@JPAJ@Z 10024470 f   strmbase:amfilter.obj
 0001:000234c0       ?ReceiveCanBlock@CBaseInputPin@@UAGJXZ 100244c0 f   strmbase:amfilter.obj
 0001:00023580       ?BeginFlush@CBaseInputPin@@UAGJXZ 10024580 f   strmbase:amfilter.obj
 0001:000235b0       ?EndFlush@CBaseInputPin@@UAGJXZ 100245b0 f   strmbase:amfilter.obj
 0001:000235e0       ?Notify@CBaseInputPin@@UAGJPAUIBaseFilter@@UtagQuality@@@Z 100245e0 f   strmbase:amfilter.obj
 0001:00023600       ?Inactive@CBaseInputPin@@UAEJXZ 10024600 f   strmbase:amfilter.obj
 0001:00023630       ?GetAllocatorRequirements@CBaseInputPin@@UAGJPAU_AllocatorProperties@@@Z 10024630 f   strmbase:amfilter.obj
 0001:00023640       ?CheckStreaming@CBaseInputPin@@UAEJXZ 10024640 f   strmbase:amfilter.obj
 0001:00023670       ?PassNotify@CBaseInputPin@@QAEJAAUtagQuality@@@Z 10024670 f   strmbase:amfilter.obj
 0001:00023710       ??0CMediaSample@@QAE@PADPAVCBaseAllocator@@PAJPAEJ@Z 10024710 f   strmbase:amfilter.obj
 0001:00023750       ??_ECMediaSample@@UAEPAXI@Z 10024750 f i strmbase:amfilter.obj
 0001:00023750       ??_GCMediaSample@@UAEPAXI@Z 10024750 f i strmbase:amfilter.obj
 0001:00023770       ??1CMediaSample@@UAE@XZ    10024770 f   strmbase:amfilter.obj
 0001:00023790       ?QueryInterface@CMediaSample@@UAGJABU_GUID@@PAPAX@Z 10024790 f   strmbase:amfilter.obj
 0001:000237f0       ?AddRef@CMediaSample@@UAGKXZ 100247f0 f   strmbase:amfilter.obj
 0001:00023810       ?Release@CMediaSample@@UAGKXZ 10024810 f   strmbase:amfilter.obj
 0001:00023870       ?SetPointer@CMediaSample@@QAEJPAEJ@Z 10024870 f   strmbase:amfilter.obj
 0001:00023890       ?GetPointer@CMediaSample@@UAGJPAPAE@Z 10024890 f   strmbase:amfilter.obj
 0001:000238b0       ?GetSize@CMediaSample@@UAGJXZ 100248b0 f   strmbase:amfilter.obj
 0001:000238c0       ?GetTime@CMediaSample@@UAGJPA_J0@Z 100248c0 f   strmbase:amfilter.obj
 0001:00023930       ?SetTime@CMediaSample@@UAGJPA_J0@Z 10024930 f   strmbase:amfilter.obj
 0001:000239a0       ?GetMediaTime@CMediaSample@@UAGJPA_J0@Z 100249a0 f   strmbase:amfilter.obj
 0001:000239f0       ?SetMediaTime@CMediaSample@@UAGJPA_J0@Z 100249f0 f   strmbase:amfilter.obj
 0001:00023a40       ?IsSyncPoint@CMediaSample@@UAGJXZ 10024a40 f   strmbase:amfilter.obj
 0001:00023a50       ?SetSyncPoint@CMediaSample@@UAGJH@Z 10024a50 f   strmbase:amfilter.obj
 0001:00023a80       ?IsDiscontinuity@CMediaSample@@UAGJXZ 10024a80 f   strmbase:amfilter.obj
 0001:00023aa0       ?SetDiscontinuity@CMediaSample@@UAGJH@Z 10024aa0 f   strmbase:amfilter.obj
 0001:00023ad0       ?IsPreroll@CMediaSample@@UAGJXZ 10024ad0 f   strmbase:amfilter.obj
 0001:00023af0       ?SetPreroll@CMediaSample@@UAGJH@Z 10024af0 f   strmbase:amfilter.obj
 0001:00023b20       ?GetActualDataLength@CMediaSample@@UAGJXZ 10024b20 f   strmbase:amfilter.obj
 0001:00023b30       ?SetActualDataLength@CMediaSample@@UAGJJ@Z 10024b30 f   strmbase:amfilter.obj
 0001:00023b50       ?GetMediaType@CMediaSample@@UAGJPAPAU_AMMediaType@@@Z 10024b50 f   strmbase:amfilter.obj
 0001:00023b90       ?SetMediaType@CMediaSample@@UAGJPAU_AMMediaType@@@Z 10024b90 f   strmbase:amfilter.obj
 0001:00023bf0       ?GetProperties@CMediaSample@@UAGJKPAE@Z 10024bf0 f   strmbase:amfilter.obj
 0001:00023cb0       ?SetProperties@CMediaSample@@UAGJKPBE@Z 10024cb0 f   strmbase:amfilter.obj
 0001:00023e60       ??0CDynamicOutputPin@@QAE@PADPAVCBaseFilter@@PAVCCritSec@@PAJPBG@Z 10024e60 f   strmbase:amfilter.obj
 0001:00023f30       ?QueryInterface@CDynamicOutputPin@@UAGJABU_GUID@@PAPAX@Z 10024f30 f i strmbase:amfilter.obj
 0001:00023f40       ?AddRef@CDynamicOutputPin@@UAGKXZ 10024f40 f i strmbase:amfilter.obj
 0001:00023f50       ?Release@CDynamicOutputPin@@UAGKXZ 10024f50 f i strmbase:amfilter.obj
 0001:00023f60       ??_ECDynamicOutputPin@@UAEPAXI@Z 10024f60 f i strmbase:amfilter.obj
 0001:00023f60       ??_GCDynamicOutputPin@@UAEPAXI@Z 10024f60 f i strmbase:amfilter.obj
 0001:00023f80       ??1CDynamicOutputPin@@UAE@XZ 10024f80 f   strmbase:amfilter.obj
 0001:00023fe0       ?Initialize@CDynamicOutputPin@@AAEJXZ 10024fe0 f   strmbase:amfilter.obj
 0001:00024010       ?NonDelegatingQueryInterface@CDynamicOutputPin@@UAGJABU_GUID@@PAPAX@Z 10025010 f   strmbase:amfilter.obj
 0001:00024060       ?Disconnect@CDynamicOutputPin@@UAGJXZ 10025060 f   strmbase:amfilter.obj
 0001:000240c0       ?Block@CDynamicOutputPin@@UAGJKPAX@Z 100250c0 f   strmbase:amfilter.obj
 0001:00024180       ?SynchronousBlockOutputPin@CDynamicOutputPin@@IAEJXZ 10025180 f   strmbase:amfilter.obj
 0001:000241e0       ?AsynchronousBlockOutputPin@CDynamicOutputPin@@IAEJPAX@Z 100251e0 f   strmbase:amfilter.obj
 0001:00024300       ?BlockOutputPin@CDynamicOutputPin@@IAEXXZ 10025300 f   strmbase:amfilter.obj
 0001:00024340       ?UnblockOutputPin@CDynamicOutputPin@@IAEJXZ 10025340 f   strmbase:amfilter.obj
 0001:000243c0       ?StartUsingOutputPin@CDynamicOutputPin@@UAEJXZ 100253c0 f   strmbase:amfilter.obj
 0001:000244e0       ?StopUsingOutputPin@CDynamicOutputPin@@UAEXXZ 100254e0 f   strmbase:amfilter.obj
 0001:00024520       ?StreamingThreadUsingOutputPin@CDynamicOutputPin@@UAE_NXZ 10025520 f   strmbase:amfilter.obj
 0001:00024550       ?SetConfigInfo@CDynamicOutputPin@@QAEXPAUIGraphConfig@@PAX@Z 10025550 f   strmbase:amfilter.obj
 0001:00024570       ?Active@CDynamicOutputPin@@UAEJXZ 10025570 f   strmbase:amfilter.obj
 0001:000245a0       ?Inactive@CDynamicOutputPin@@UAEJXZ 100255a0 f   strmbase:amfilter.obj
 0001:000245c0       ?DeliverBeginFlush@CDynamicOutputPin@@UAEJXZ 100255c0 f   strmbase:amfilter.obj
 0001:000245e0       ?DeliverEndFlush@CDynamicOutputPin@@UAEJXZ 100255e0 f   strmbase:amfilter.obj
 0001:00024600       ?ChangeOutputFormat@CDynamicOutputPin@@QAEJPBU_AMMediaType@@_J1N@Z 10025600 f   strmbase:amfilter.obj
 0001:000246e0       ?ChangeMediaType@CDynamicOutputPin@@QAEJPBVCMediaType@@@Z 100256e0 f   strmbase:amfilter.obj
 0001:000247c0       ?ChangeMediaTypeHelper@CDynamicOutputPin@@AAEJPBVCMediaType@@@Z 100257c0 f   strmbase:amfilter.obj
 0001:00024890       ?DynamicReconnect@CDynamicOutputPin@@QAEJPBVCMediaType@@@Z 10025890 f   strmbase:amfilter.obj
 0001:000248d0       ?CompleteConnect@CDynamicOutputPin@@UAEJPAUIPin@@@Z 100258d0 f   strmbase:amfilter.obj
 0001:00024900       ?WaitEvent@CDynamicOutputPin@@KAJPAX@Z 10025900 f   strmbase:amfilter.obj
 0001:00024930       ??0CBaseAllocator@@QAE@PADPAUIUnknown@@PAJHH@Z 10025930 f   strmbase:amfilter.obj
 0001:000249c0       ??1CBaseAllocator@@UAE@XZ  100259c0 f   strmbase:amfilter.obj
 0001:00024a30       ?NonDelegatingQueryInterface@CBaseAllocator@@UAGJABU_GUID@@PAPAX@Z 10025a30 f   strmbase:amfilter.obj
 0001:00024aa0       ?SetProperties@CBaseAllocator@@UAGJPAU_AllocatorProperties@@0@Z 10025aa0 f   strmbase:amfilter.obj
 0001:00024b80       ?GetProperties@CBaseAllocator@@UAGJPAU_AllocatorProperties@@@Z 10025b80 f   strmbase:amfilter.obj
 0001:00024be0       ?GetBuffer@CBaseAllocator@@UAGJPAPAUIMediaSample@@PA_J1K@Z 10025be0 f   strmbase:amfilter.obj
 0001:00024c80       ?ReleaseBuffer@CBaseAllocator@@UAGJPAUIMediaSample@@@Z 10025c80 f   strmbase:amfilter.obj
 0001:00024d70       ?SetNotify@CBaseAllocator@@UAGJPAUIMemAllocatorNotifyCallbackTemp@@@Z 10025d70 f   strmbase:amfilter.obj
 0001:00024df0       ?GetFreeCount@CBaseAllocator@@UAGJPAJ@Z 10025df0 f   strmbase:amfilter.obj
 0001:00024e30       ?NotifySample@CBaseAllocator@@QAEXXZ 10025e30 f   strmbase:amfilter.obj
 0001:00024e50       ?Commit@CBaseAllocator@@UAGJXZ 10025e50 f   strmbase:amfilter.obj
 0001:00024f10       ?Decommit@CBaseAllocator@@UAGJXZ 10025f10 f   strmbase:amfilter.obj
 0001:00024fd0       ?Alloc@CBaseAllocator@@MAEJXZ 10025fd0 f   strmbase:amfilter.obj
 0001:00025000       ?Remove@CSampleList@CBaseAllocator@@QAEXPAVCMediaSample@@@Z 10026000 f   strmbase:amfilter.obj
 0001:00025040       ?CreateInstance@CMemAllocator@@SAPAVCUnknown@@PAUIUnknown@@PAJ@Z 10026040 f   strmbase:amfilter.obj
 0001:000250b0       ??0CMemAllocator@@QAE@PADPAUIUnknown@@PAJ@Z 100260b0 f   strmbase:amfilter.obj
 0001:000250f0       ?QueryInterface@CBaseAllocator@@UAGJABU_GUID@@PAPAX@Z 100260f0 f i strmbase:amfilter.obj
 0001:00025100       ?AddRef@CBaseAllocator@@UAGKXZ 10026100 f i strmbase:amfilter.obj
 0001:00025110       ?Release@CBaseAllocator@@UAGKXZ 10026110 f i strmbase:amfilter.obj
 0001:00025120       ??_ECMemAllocator@@UAEPAXI@Z 10026120 f i strmbase:amfilter.obj
 0001:00025120       ??_GCMemAllocator@@UAEPAXI@Z 10026120 f i strmbase:amfilter.obj
 0001:00025140       ?SetProperties@CMemAllocator@@UAGJPAU_AllocatorProperties@@0@Z 10026140 f   strmbase:amfilter.obj
 0001:00025260       ?Alloc@CMemAllocator@@MAEJXZ 10026260 f   strmbase:amfilter.obj
 0001:000253b0       ?Free@CMemAllocator@@MAEXXZ 100263b0 f   strmbase:amfilter.obj
 0001:000253c0       ?ReallyFree@CMemAllocator@@IAEXXZ 100263c0 f   strmbase:amfilter.obj
 0001:00025410       ??1CMemAllocator@@UAE@XZ   10026410 f   strmbase:amfilter.obj
 0001:00025470       _AMovieSetupRegisterFilter@12 10026470 f   strmbase:amfilter.obj
 0001:00025650       ??1?$QzCComPtr@UIPinConnection@@@@QAE@XZ 10026650 f i strmbase:amfilter.obj
 0001:00025660       ?QueryInterface@CDynamicOutputPin@@W3AGJABU_GUID@@PAPAX@Z 10026660 f i strmbase:amfilter.obj
 0001:00025670       ?AddRef@CDynamicOutputPin@@W3AGKXZ 10026670 f i strmbase:amfilter.obj
 0001:00025680       ?Release@CDynamicOutputPin@@W3AGKXZ 10026680 f i strmbase:amfilter.obj
 0001:00025690       ?QueryInterface@CDynamicOutputPin@@WJE@AGJABU_GUID@@PAPAX@Z 10026690 f i strmbase:amfilter.obj
 0001:000256a0       ?AddRef@CDynamicOutputPin@@WJE@AGKXZ 100266a0 f i strmbase:amfilter.obj
 0001:000256b0       ?Release@CDynamicOutputPin@@WJE@AGKXZ 100266b0 f i strmbase:amfilter.obj
 0001:000256c0       ??0CBaseObject@@QAE@PBD@Z  100266c0 f   strmbase:combase.obj
 0001:000256e0       ??1CBaseObject@@QAE@XZ     100266e0 f   strmbase:combase.obj
 0001:00025710       ?LoadOLEAut32@@YAPAUHINSTANCE__@@XZ 10026710 f   strmbase:combase.obj
 0001:00025730       ??0CUnknown@@QAE@PBDPAUIUnknown@@@Z 10026730 f   strmbase:combase.obj
 0001:00025760       ??0CUnknown@@QAE@PADPAUIUnknown@@PAJ@Z 10026760 f   strmbase:combase.obj
 0001:00025790       ?NonDelegatingQueryInterface@CUnknown@@UAGJABU_GUID@@PAPAX@Z 10026790 f   strmbase:combase.obj
 0001:000257e0       ?NonDelegatingAddRef@CUnknown@@UAGKXZ 100267e0 f   strmbase:combase.obj
 0001:00025800       ?NonDelegatingRelease@CUnknown@@UAGKXZ 10026800 f   strmbase:combase.obj
 0001:00025840       _GetInterface@8            10026840 f   strmbase:combase.obj
 0001:00025870       ?IsEqualObject@@YGHPAUIUnknown@@0@Z 10026870 f   strmbase:combase.obj
 0001:000258d0       ??0CAMEvent@@QAE@H@Z       100268d0 f   strmbase:wxutil.obj
 0001:000258f0       ??1CAMEvent@@QAE@XZ        100268f0 f   strmbase:wxutil.obj
 0001:00025900       ?WaitMsg@CAMMsgEvent@@QAEHK@Z 10026900 f   strmbase:wxutil.obj
 0001:00025980       ??0CAMThread@@QAE@XZ       10026980 f   strmbase:wxutil.obj
 0001:000259c0       ??1CAMThread@@UAE@XZ       100269c0 f   strmbase:wxutil.obj
 0001:00025a10       ?InitialThreadProc@CAMThread@@SGKPAX@Z 10026a10 f   strmbase:wxutil.obj
 0001:00025a40       ?Create@CAMThread@@QAEHXZ  10026a40 f   strmbase:wxutil.obj
 0001:00025aa0       ?CallWorker@CAMThread@@QAEKK@Z 10026aa0 f   strmbase:wxutil.obj
 0001:00025b00       ?GetRequest@CAMThread@@QAEKXZ 10026b00 f   strmbase:wxutil.obj
 0001:00025b20       ?CheckRequest@CAMThread@@QAEHPAK@Z 10026b20 f   strmbase:wxutil.obj
 0001:00025b50       ?Reply@CAMThread@@QAEXK@Z  10026b50 f   strmbase:wxutil.obj
 0001:00025b80       ?CoInitializeHelper@CAMThread@@SAJXZ 10026b80 f   strmbase:wxutil.obj
 0001:00025bc0       ??1CMsgThread@@QAE@XZ      10026bc0 f   strmbase:wxutil.obj
 0001:00025c70       ?CreateThread@CMsgThread@@QAEHXZ 10026c70 f   strmbase:wxutil.obj
 0001:00025cc0       ?DefaultThreadProc@CMsgThread@@CGKPAX@Z 10026cc0 f   strmbase:wxutil.obj
 0001:00025d30       ?GetThreadMsg@CMsgThread@@UAEXPAVCMsg@@@Z 10026d30 f   strmbase:wxutil.obj
 0001:00025dd0       ?lstrcpyWInternal@@YGPAGPAGPBG@Z 10026dd0 f   strmbase:wxutil.obj
 0001:00025df0       ?lstrcpynWInternal@@YGPAGPAGPBGH@Z 10026df0 f   strmbase:wxutil.obj
 0001:00025e30       ?lstrcmpWInternal@@YGHPBG0@Z 10026e30 f   strmbase:wxutil.obj
 0001:00025e70       ?lstrcmpiWInternal@@YGHPBG0@Z 10026e70 f   strmbase:wxutil.obj
 0001:00025ee0       ?lstrlenWInternal@@YGHPBG@Z 10026ee0 f   strmbase:wxutil.obj
 0001:00025f00       ?wsprintfWInternal@@YAHPAGPBGZZ 10026f00 f   strmbase:wxutil.obj
 0001:00025f80       ?IntToWstr@@YGXHPAG@Z      10026f80 f   strmbase:wxutil.obj
 0001:00025fc0       _memmoveInternal@12        10026fc0 f   strmbase:wxutil.obj
 0001:00026020       ?llMulDiv@@YG_J_J000@Z     10027020 f   strmbase:wxutil.obj
 0001:00026350       ?Int64x32Div32@@YG_J_JJJJ@Z 10027350 f   strmbase:wxutil.obj
 0001:00026540       _WriteBSTR@8               10027540 f   strmbase:wxutil.obj
 0001:00026570       _FreeBSTR@4                10027570 f   strmbase:wxutil.obj
 0001:00026590       _AMGetWideString@8         10027590 f   strmbase:wxutil.obj
 0001:000265f0       ?WaitDispatchingMessages@@YGKPAXKPAUHWND__@@I0@Z 100275f0 f   strmbase:wxutil.obj
 0001:00026800       ??1?$CGenericList@VCMsg@@@@QAE@XZ 10027800 f i strmbase:wxutil.obj
 0001:00026810       ?AmGetLastErrorToHResult@@YAJXZ 10027810 f   strmbase:wxutil.obj
 0001:00026830       ?QzAtlComPtrAssign@@YAPAUIUnknown@@PAPAU1@PAU1@@Z 10027830 f   strmbase:wxutil.obj
 0001:00026860       ?CompatibleTimeSetEvent@@YAIIIP6GXIIKKK@ZKI@Z 10027860 f   strmbase:wxutil.obj
 0001:000268b0       ?TimeKillSynchronousFlagAvailable@@YA_NXZ 100278b0 f   strmbase:wxutil.obj
 0001:00026900       ??1CMediaType@@QAE@XZ      10027900 f   strmbase:mtype.obj
 0001:00026910       ??0CMediaType@@QAE@XZ      10027910 f   strmbase:mtype.obj
 0001:00026920       ??0CMediaType@@QAE@PBU_GUID@@@Z 10027920 f   strmbase:mtype.obj
 0001:00026950       ??0CMediaType@@QAE@ABU_AMMediaType@@PAJ@Z 10027950 f   strmbase:mtype.obj
 0001:00026980       ??0CMediaType@@QAE@ABV0@PAJ@Z 10027980 f   strmbase:mtype.obj
 0001:000269b0       ??4CMediaType@@QAEAAV0@ABU_AMMediaType@@@Z 100279b0 f   strmbase:mtype.obj
 0001:000269d0       ??4CMediaType@@QAEAAV0@ABV0@@Z 100279d0 f   strmbase:mtype.obj
 0001:000269f0       ??8CMediaType@@QBEHABV0@@Z 100279f0 f   strmbase:mtype.obj
 0001:00026a60       ??9CMediaType@@QBEHABV0@@Z 10027a60 f   strmbase:mtype.obj
 0001:00026a80       ?Set@CMediaType@@QAEJABV1@@Z 10027a80 f   strmbase:mtype.obj
 0001:00026a90       ?Set@CMediaType@@QAEJABU_AMMediaType@@@Z 10027a90 f   strmbase:mtype.obj
 0001:00026ac0       ?IsValid@CMediaType@@QBEHXZ 10027ac0 f   strmbase:mtype.obj
 0001:00026ae0       ?SetType@CMediaType@@QAEXPBU_GUID@@@Z 10027ae0 f   strmbase:mtype.obj
 0001:00026b00       ?SetSubtype@CMediaType@@QAEXPBU_GUID@@@Z 10027b00 f   strmbase:mtype.obj
 0001:00026b20       ?GetSampleSize@CMediaType@@QBEKXZ 10027b20 f   strmbase:mtype.obj
 0001:00026b30       ?SetSampleSize@CMediaType@@QAEXK@Z 10027b30 f   strmbase:mtype.obj
 0001:00026b50       ?SetVariableSize@CMediaType@@QAEXXZ 10027b50 f   strmbase:mtype.obj
 0001:00026b60       ?SetTemporalCompression@CMediaType@@QAEXH@Z 10027b60 f   strmbase:mtype.obj
 0001:00026b70       ?SetFormat@CMediaType@@QAEHPAEK@Z 10027b70 f   strmbase:mtype.obj
 0001:00026bb0       ?SetFormatType@CMediaType@@QAEXPBU_GUID@@@Z 10027bb0 f   strmbase:mtype.obj
 0001:00026bd0       ?ResetFormatBuffer@CMediaType@@QAEXXZ 10027bd0 f   strmbase:mtype.obj
 0001:00026bf0       ?AllocFormatBuffer@CMediaType@@QAEPAEK@Z 10027bf0 f   strmbase:mtype.obj
 0001:00026c50       ?ReallocFormatBuffer@CMediaType@@QAEPAEK@Z 10027c50 f   strmbase:mtype.obj
 0001:00026cd0       ?InitMediaType@CMediaType@@QAEXXZ 10027cd0 f   strmbase:mtype.obj
 0001:00026cf0       ?IsPartiallySpecified@CMediaType@@QBEHXZ 10027cf0 f   strmbase:mtype.obj
 0001:00026d30       ?MatchesPartial@CMediaType@@QBEHPBV1@@Z 10027d30 f   strmbase:mtype.obj
 0001:00026e00       ?DeleteMediaType@@YGXPAU_AMMediaType@@@Z 10027e00 f   strmbase:mtype.obj
 0001:00026e20       ?CreateMediaType@@YGPAU_AMMediaType@@PBU1@@Z 10027e20 f   strmbase:mtype.obj
 0001:00026e60       ?CopyMediaType@@YGJPAU_AMMediaType@@PBU1@@Z 10027e60 f   strmbase:mtype.obj
 0001:00026ed0       ?FreeMediaType@@YGXAAU_AMMediaType@@@Z 10027ed0 f   strmbase:mtype.obj
 0001:00026f10       _CreateAudioMediaType@12   10027f10 f   strmbase:mtype.obj
 0001:00027070       _GetBitmapSize@4           10028070 f   strmbase:amvideo.obj
 0001:000270a0       _GetTrueColorType@4        100280a0 f   strmbase:amvideo.obj
 0001:00027190       _GetBitmapSubtype@4        10028190 f   strmbase:amvideo.obj
 0001:00027390       _GetBitCount@4             10028390 f   strmbase:amvideo.obj
 0001:000273f0       ?LocateSubtype@@YAHPBU_GUID@@@Z 100283f0 f   strmbase:amvideo.obj
 0001:00027450       _GetSubtypeNameW@4         10028450 f   strmbase:amvideo.obj
 0001:00027470       _GetSubtypeNameA@4         10028470 f   strmbase:amvideo.obj
 0001:00027490       _GetSubtypeName@4          10028490 f   strmbase:amvideo.obj
 0001:000274a0       _GetBitmapFormatSize@4     100284a0 f   strmbase:amvideo.obj
 0001:000274e0       _ContainsPalette@4         100284e0 f   strmbase:amvideo.obj
 0001:00027500       _GetBitmapPalette@4        10028500 f   strmbase:amvideo.obj
 0001:00027520       ??0CBasePropertyPage@@QAE@PADPAUIUnknown@@HH@Z 10028520 f   strmbase:cprop.obj
 0001:00027560       ?NonDelegatingAddRef@CBasePropertyPage@@UAGKXZ 10028560 f   strmbase:cprop.obj
 0001:00027590       ?NonDelegatingRelease@CBasePropertyPage@@UAGKXZ 10028590 f   strmbase:cprop.obj
 0001:000275f0       ?NonDelegatingQueryInterface@CBasePropertyPage@@UAGJABU_GUID@@PAPAX@Z 100285f0 f   strmbase:cprop.obj
 0001:00027630       ?GetPageInfo@CBasePropertyPage@@UAGJPAUtagPROPPAGEINFO@@@Z 10028630 f   strmbase:cprop.obj
 0001:000276d0       ?DialogProc@CBasePropertyPage@@KGHPAUHWND__@@IIJ@Z 100286d0 f   strmbase:cprop.obj
 0001:00027730       ?SetObjects@CBasePropertyPage@@UAGJKPAPAUIUnknown@@@Z 10028730 f   strmbase:cprop.obj
 0001:00027780       ?Activate@CBasePropertyPage@@UAGJPAUHWND__@@PBUtagRECT@@H@Z 10028780 f   strmbase:cprop.obj
 0001:00027810       ?Move@CBasePropertyPage@@UAGJPBUtagRECT@@@Z 10028810 f   strmbase:cprop.obj
 0001:00027860       ?Show@CBasePropertyPage@@UAGJI@Z 10028860 f   strmbase:cprop.obj
 0001:000278b0       ?Deactivate@CBasePropertyPage@@UAGJXZ 100288b0 f   strmbase:cprop.obj
 0001:00027910       ?SetPageSite@CBasePropertyPage@@UAGJPAUIPropertyPageSite@@@Z 10028910 f   strmbase:cprop.obj
 0001:00027970       ?Apply@CBasePropertyPage@@UAGJXZ 10028970 f   strmbase:cprop.obj
 0001:000279c0       ?OnReceiveMessage@CBasePropertyPage@@UAEHPAUHWND__@@IIJ@Z 100289c0 f   strmbase:cprop.obj
 0001:00027a20       _EliminateSubKey@8         10028a20 f   strmbase:dllsetup.obj
 0001:00027af0       _AMovieSetupRegisterServer@32 10028af0 f   strmbase:dllsetup.obj
 0001:00027cb0       _AMovieSetupUnregisterServer@16 10028cb0 f   strmbase:dllsetup.obj
 0001:00027d00       _AMovieSetupRegisterFilter2@12 10028d00 f   strmbase:dllsetup.obj
 0001:00027d80       _RegisterAllServers@8      10028d80 f   strmbase:dllsetup.obj
 0001:00027e20       _AMovieDllRegisterServer2@4 10028e20 f   strmbase:dllsetup.obj
 0001:00027f90       _AMovieDllRegisterServer@0 10028f90 f   strmbase:dllsetup.obj
 0001:000280d0       _AMovieDllUnregisterServer@0 100290d0 f   strmbase:dllsetup.obj
 0001:00028180       ??0CBaseList@@QAE@PADH@Z   10029180 f   strmbase:wxlist.obj
 0001:000281a0       ??0CBaseList@@QAE@PAD@Z    100291a0 f   strmbase:wxlist.obj
 0001:000281c0       ??1CBaseList@@QAE@XZ       100291c0 f   strmbase:wxlist.obj
 0001:00028220       ?RemoveAll@CBaseList@@QAEXXZ 10029220 f   strmbase:wxlist.obj
 0001:00028260       ?GetHeadPositionI@CBaseList@@QBEPAU__POSITION@@XZ 10029260 f   strmbase:wxlist.obj
 0001:00028270       ?GetTailPositionI@CBaseList@@QBEPAU__POSITION@@XZ 10029270 f   strmbase:wxlist.obj
 0001:00028280       ?GetCountI@CBaseList@@QBEHXZ 10029280 f   strmbase:wxlist.obj
 0001:00028290       ?GetNextI@CBaseList@@IBEPAXAAPAU__POSITION@@@Z 10029290 f   strmbase:wxlist.obj
 0001:000282b0       ?GetI@CBaseList@@IBEPAXPAU__POSITION@@@Z 100292b0 f   strmbase:wxlist.obj
 0001:000282d0       ?FindI@CBaseList@@IBEPAU__POSITION@@PAX@Z 100292d0 f   strmbase:wxlist.obj
 0001:00028310       ?RemoveHeadI@CBaseList@@IAEPAXXZ 10029310 f   strmbase:wxlist.obj
 0001:00028320       ?RemoveTailI@CBaseList@@IAEPAXXZ 10029320 f   strmbase:wxlist.obj
 0001:00028330       ?RemoveI@CBaseList@@IAEPAXPAU__POSITION@@@Z 10029330 f   strmbase:wxlist.obj
 0001:000283b0       ?AddTailI@CBaseList@@IAEPAU__POSITION@@PAX@Z 100293b0 f   strmbase:wxlist.obj
 0001:00028420       ?AddHeadI@CBaseList@@IAEPAU__POSITION@@PAX@Z 10029420 f   strmbase:wxlist.obj
 0001:00028490       ?AddTail@CBaseList@@QAEHPAV1@@Z 10029490 f   strmbase:wxlist.obj
 0001:000284e0       ?AddHead@CBaseList@@QAEHPAV1@@Z 100294e0 f   strmbase:wxlist.obj
 0001:00028530       ?AddAfterI@CBaseList@@IAEPAU__POSITION@@PAU2@PAX@Z 10029530 f   strmbase:wxlist.obj
 0001:000285b0       ?AddAfter@CBaseList@@QAEHPAU__POSITION@@PAV1@@Z 100295b0 f   strmbase:wxlist.obj
 0001:00028610       ?AddBeforeI@CBaseList@@IAEPAU__POSITION@@PAU2@PAX@Z 10029610 f   strmbase:wxlist.obj
 0001:00028690       ?AddBefore@CBaseList@@QAEHPAU__POSITION@@PAV1@@Z 10029690 f   strmbase:wxlist.obj
 0001:000286f0       ?MoveToTail@CBaseList@@QAEHPAU__POSITION@@PAV1@@Z 100296f0 f   strmbase:wxlist.obj
 0001:00028770       ?MoveToHead@CBaseList@@QAEHPAU__POSITION@@PAV1@@Z 10029770 f   strmbase:wxlist.obj
 0001:000287f0       ?Reverse@CBaseList@@QAEXXZ 100297f0 f   strmbase:wxlist.obj
 0001:00028820       ??1CNodeCache@CBaseList@@QAE@XZ 10029820 f i strmbase:wxlist.obj
 0001:00028840       ?StringFromResource@@YGPADPADH@Z 10029840 f   strmbase:videoctl.obj
 0001:00028870       ?WideStringFromResource@@YGPAGPAGH@Z 10029870 f   strmbase:videoctl.obj
 0001:000288f0       ?GetDialogSize@@YGHHP6GHPAUHWND__@@IIJ@ZJPAUtagSIZE@@@Z 100298f0 f   strmbase:videoctl.obj
 0001:00028970       ?NonDelegatingQueryInterface@CAggDirectDraw@@UAGJABU_GUID@@PAPAX@Z 10029970 f   strmbase:videoctl.obj
 0001:000289b0       ?Compact@CAggDirectDraw@@UAGJXZ 100299b0 f   strmbase:videoctl.obj
 0001:000289c0       ?CreateClipper@CAggDirectDraw@@UAGJKPAPAUIDirectDrawClipper@@PAUIUnknown@@@Z 100299c0 f   strmbase:videoctl.obj
 0001:000289d0       ?CreatePalette@CAggDirectDraw@@UAGJKPAUtagPALETTEENTRY@@PAPAUIDirectDrawPalette@@PAUIUnknown@@@Z 100299d0 f   strmbase:videoctl.obj
 0001:000289e0       ?CreateSurface@CAggDirectDraw@@UAGJPAU_DDSURFACEDESC@@PAPAUIDirectDrawSurface@@PAUIUnknown@@@Z 100299e0 f   strmbase:videoctl.obj
 0001:000289f0       ?DuplicateSurface@CAggDirectDraw@@UAGJPAUIDirectDrawSurface@@PAPAU2@@Z 100299f0 f   strmbase:videoctl.obj
 0001:00028a00       ?EnumDisplayModes@CAggDirectDraw@@UAGJKPAU_DDSURFACEDESC@@PAXP6GJ01@Z@Z 10029a00 f   strmbase:videoctl.obj
 0001:00028a10       ?EnumSurfaces@CAggDirectDraw@@UAGJKPAU_DDSURFACEDESC@@PAXP6GJPAUIDirectDrawSurface@@01@Z@Z 10029a10 f   strmbase:videoctl.obj
 0001:00028a20       ?FlipToGDISurface@CAggDirectDraw@@UAGJXZ 10029a20 f   strmbase:videoctl.obj
 0001:00028a30       ?GetCaps@CAggDirectDraw@@UAGJPAU_DDCAPS_DX7@@0@Z 10029a30 f   strmbase:videoctl.obj
 0001:00028a40       ?GetDisplayMode@CAggDirectDraw@@UAGJPAU_DDSURFACEDESC@@@Z 10029a40 f   strmbase:videoctl.obj
 0001:00028a50       ?GetFourCCCodes@CAggDirectDraw@@UAGJPAK0@Z 10029a50 f   strmbase:videoctl.obj
 0001:00028a60       ?GetGDISurface@CAggDirectDraw@@UAGJPAPAUIDirectDrawSurface@@@Z 10029a60 f   strmbase:videoctl.obj
 0001:00028a70       ?GetMonitorFrequency@CAggDirectDraw@@UAGJPAK@Z 10029a70 f   strmbase:videoctl.obj
 0001:00028a80       ?GetScanLine@CAggDirectDraw@@UAGJPAK@Z 10029a80 f   strmbase:videoctl.obj
 0001:00028a90       ?GetVerticalBlankStatus@CAggDirectDraw@@UAGJPAH@Z 10029a90 f   strmbase:videoctl.obj
 0001:00028aa0       ?Initialize@CAggDirectDraw@@UAGJPAU_GUID@@@Z 10029aa0 f   strmbase:videoctl.obj
 0001:00028ab0       ?RestoreDisplayMode@CAggDirectDraw@@UAGJXZ 10029ab0 f   strmbase:videoctl.obj
 0001:00028ac0       ?SetCooperativeLevel@CAggDirectDraw@@UAGJPAUHWND__@@K@Z 10029ac0 f   strmbase:videoctl.obj
 0001:00028ad0       ?SetDisplayMode@CAggDirectDraw@@UAGJKKK@Z 10029ad0 f   strmbase:videoctl.obj
 0001:00028ae0       ?WaitForVerticalBlank@CAggDirectDraw@@UAGJKPAX@Z 10029ae0 f   strmbase:videoctl.obj
 0001:00028af0       ?NonDelegatingQueryInterface@CAggDrawSurface@@UAGJABU_GUID@@PAPAX@Z 10029af0 f   strmbase:videoctl.obj
 0001:00028b30       ?AddAttachedSurface@CAggDrawSurface@@UAGJPAUIDirectDrawSurface@@@Z 10029b30 f   strmbase:videoctl.obj
 0001:00028b40       ?AddOverlayDirtyRect@CAggDrawSurface@@UAGJPAUtagRECT@@@Z 10029b40 f   strmbase:videoctl.obj
 0001:00028b50       ?Blt@CAggDrawSurface@@UAGJPAUtagRECT@@PAUIDirectDrawSurface@@0KPAU_DDBLTFX@@@Z 10029b50 f   strmbase:videoctl.obj
 0001:00028b60       ?BltBatch@CAggDrawSurface@@UAGJPAU_DDBLTBATCH@@KK@Z 10029b60 f   strmbase:videoctl.obj
 0001:00028b70       ?BltFast@CAggDrawSurface@@UAGJKKPAUIDirectDrawSurface@@PAUtagRECT@@K@Z 10029b70 f   strmbase:videoctl.obj
 0001:00028b80       ?DeleteAttachedSurface@CAggDrawSurface@@UAGJKPAUIDirectDrawSurface@@@Z 10029b80 f   strmbase:videoctl.obj
 0001:00028b90       ?EnumAttachedSurfaces@CAggDrawSurface@@UAGJPAXP6GJPAUIDirectDrawSurface@@PAU_DDSURFACEDESC@@0@Z@Z 10029b90 f   strmbase:videoctl.obj
 0001:00028ba0       ?EnumOverlayZOrders@CAggDrawSurface@@UAGJKPAXP6GJPAUIDirectDrawSurface@@PAU_DDSURFACEDESC@@0@Z@Z 10029ba0 f   strmbase:videoctl.obj
 0001:00028bb0       ?Flip@CAggDrawSurface@@UAGJPAUIDirectDrawSurface@@K@Z 10029bb0 f   strmbase:videoctl.obj
 0001:00028bc0       ?GetAttachedSurface@CAggDrawSurface@@UAGJPAU_DDSCAPS@@PAPAUIDirectDrawSurface@@@Z 10029bc0 f   strmbase:videoctl.obj
 0001:00028bd0       ?GetBltStatus@CAggDrawSurface@@UAGJK@Z 10029bd0 f   strmbase:videoctl.obj
 0001:00028be0       ?GetCaps@CAggDrawSurface@@UAGJPAU_DDSCAPS@@@Z 10029be0 f   strmbase:videoctl.obj
 0001:00028bf0       ?GetClipper@CAggDrawSurface@@UAGJPAPAUIDirectDrawClipper@@@Z 10029bf0 f   strmbase:videoctl.obj
 0001:00028c00       ?GetColorKey@CAggDrawSurface@@UAGJKPAU_DDCOLORKEY@@@Z 10029c00 f   strmbase:videoctl.obj
 0001:00028c10       ?GetDC@CAggDrawSurface@@UAGJPAPAUHDC__@@@Z 10029c10 f   strmbase:videoctl.obj
 0001:00028c20       ?GetFlipStatus@CAggDrawSurface@@UAGJK@Z 10029c20 f   strmbase:videoctl.obj
 0001:00028c30       ?GetOverlayPosition@CAggDrawSurface@@UAGJPAJ0@Z 10029c30 f   strmbase:videoctl.obj
 0001:00028c40       ?GetPalette@CAggDrawSurface@@UAGJPAPAUIDirectDrawPalette@@@Z 10029c40 f   strmbase:videoctl.obj
 0001:00028c50       ?GetPixelFormat@CAggDrawSurface@@UAGJPAU_DDPIXELFORMAT@@@Z 10029c50 f   strmbase:videoctl.obj
 0001:00028c60       ?GetSurfaceDesc@CAggDrawSurface@@UAGJPAU_DDSURFACEDESC@@@Z 10029c60 f   strmbase:videoctl.obj
 0001:00028c90       ?Initialize@CAggDrawSurface@@UAGJPAUIDirectDraw@@PAU_DDSURFACEDESC@@@Z 10029c90 f   strmbase:videoctl.obj
 0001:00028ca0       ?IsLost@CAggDrawSurface@@UAGJXZ 10029ca0 f   strmbase:videoctl.obj
 0001:00028cb0       ?Lock@CAggDrawSurface@@UAGJPAUtagRECT@@PAU_DDSURFACEDESC@@KPAX@Z 10029cb0 f   strmbase:videoctl.obj
 0001:00028cc0       ?ReleaseDC@CAggDrawSurface@@UAGJPAUHDC__@@@Z 10029cc0 f   strmbase:videoctl.obj
 0001:00028cd0       ?Restore@CAggDrawSurface@@UAGJXZ 10029cd0 f   strmbase:videoctl.obj
 0001:00028ce0       ?SetClipper@CAggDrawSurface@@UAGJPAUIDirectDrawClipper@@@Z 10029ce0 f   strmbase:videoctl.obj
 0001:00028cf0       ?SetColorKey@CAggDrawSurface@@UAGJKPAU_DDCOLORKEY@@@Z 10029cf0 f   strmbase:videoctl.obj
 0001:00028d00       ?SetOverlayPosition@CAggDrawSurface@@UAGJJJ@Z 10029d00 f   strmbase:videoctl.obj
 0001:00028d10       ?SetPalette@CAggDrawSurface@@UAGJPAUIDirectDrawPalette@@@Z 10029d10 f   strmbase:videoctl.obj
 0001:00028d20       ?Unlock@CAggDrawSurface@@UAGJPAX@Z 10029d20 f   strmbase:videoctl.obj
 0001:00028d40       ?UpdateOverlay@CAggDrawSurface@@UAGJPAUtagRECT@@PAUIDirectDrawSurface@@0KPAU_DDOVERLAYFX@@@Z 10029d40 f   strmbase:videoctl.obj
 0001:00028d60       ?UpdateOverlayDisplay@CAggDrawSurface@@UAGJK@Z 10029d60 f   strmbase:videoctl.obj
 0001:00028d80       ?UpdateOverlayZOrder@CAggDrawSurface@@UAGJKPAUIDirectDrawSurface@@@Z 10029d80 f   strmbase:videoctl.obj
 0001:00028da0       ??0CLoadDirectDraw@@QAE@XZ 10029da0 f   strmbase:videoctl.obj
 0001:00028db0       ??1CLoadDirectDraw@@QAE@XZ 10029db0 f   strmbase:videoctl.obj
 0001:00028dd0       ?LoadDirectDraw@CLoadDirectDraw@@QAEJPAD@Z 10029dd0 f   strmbase:videoctl.obj
 0001:00028e90       ?ReleaseDirectDraw@CLoadDirectDraw@@QAEXXZ 10029e90 f   strmbase:videoctl.obj
 0001:00028eb0       ?IsDirectDrawLoaded@CLoadDirectDraw@@QAEJXZ 10029eb0 f   strmbase:videoctl.obj
 0001:00028ec0       ?GetDirectDraw@CLoadDirectDraw@@QAEPAUIDirectDraw@@XZ 10029ec0 f   strmbase:videoctl.obj
 0001:00028ee0       ?IsDirectDrawVersion1@CLoadDirectDraw@@QAEHXZ 10029ee0 f   strmbase:videoctl.obj
 0001:00028f20       ?FindDeviceCallback@@YGHPAU_GUID@@PAD1PAX@Z 10029f20 f   strmbase:ddmm.obj
 0001:00028f90       ?FindDeviceCallbackEx@@YGHPAU_GUID@@PAD1PAXPAUHMONITOR__@@@Z 10029f90 f   strmbase:ddmm.obj
 0001:00029000       _DirectDrawCreateFromDevice 1002a000 f   strmbase:ddmm.obj
 0001:00029080       _DirectDrawCreateFromDeviceEx 1002a080 f   strmbase:ddmm.obj
 0001:00029100       _init_icsmemcpy            1002a100 f   ICSMemory:ICSMemory.obj
 0001:00029160       _fastmemcpy                1002a160 f   ICSMemory:ICSMemory.obj
 0001:000291a0       _memcpy_x86                1002a1a0     ICSMemory:memcpy.obj
 0001:000291e0       _memcpy_sse                1002a1e0     ICSMemory:memcpy.obj
 0001:000292f0       _memcpy_mmx                1002a2f0     ICSMemory:memcpy.obj
 0001:000293c0       _memcpy_xmm                1002a3c0     ICSMemory:memcpy.obj
 0001:000294b0       _check_cpu_features        1002a4b0     ICSMemory:cpuid.obj
 0001:000295b0       _sse_os_trigger            1002a5b0     ICSMemory:cpuid.obj
 0001:000295c0       _sse2_os_trigger           1002a5c0     ICSMemory:cpuid.obj
 0001:000295c6       _strspn                    1002a5c6 f   MSVCRT:MSVCRT.dll
 0001:000295cc       ??3@YAXPAX@Z               1002a5cc f   MSVCRT:MSVCRT.dll
 0001:000295d2       ??_M@YGXPAXIHP6EX0@Z@Z     1002a5d2 f   MSVCRT:ehvecdtr.obj
 0001:00029652       ?__ArrayUnwind@@YGXPAXIHP6EX0@Z@Z 1002a652 f   MSVCRT:ehvecdtr.obj
 0001:000296c6       ??_L@YGXPAXIHP6EX0@Z1@Z    1002a6c6 f   MSVCRT:ehvecctr.obj
 0001:00029748       ___CxxFrameHandler         1002a748 f   MSVCRT:MSVCRT.dll
 0001:00029750       _atoi                      1002a750 f   MSVCRT:MSVCRT.dll
 0001:00029756       __mbscmp                   1002a756 f   MSVCRT:MSVCRT.dll
 0001:0002975c       ??2@YAPAXI@Z               1002a75c f   MSVCRT:MSVCRT.dll
 0001:00029762       __stricmp                  1002a762 f   MSVCRT:MSVCRT.dll
 0001:00029768       __purecall                 1002a768 f   MSVCRT:MSVCRT.dll
 0001:0002976e       ??0type_info@@AAE@ABV0@@Z  1002a76e f   MSVCRT:ti_inst.obj
 0001:00029779       ??_Gtype_info@@UAEPAXI@Z   1002a779 f i MSVCRT:ti_inst.obj
 0001:00029779       ??_Etype_info@@UAEPAXI@Z   1002a779 f i MSVCRT:ti_inst.obj
 0001:00029795       ??4type_info@@AAEAAV0@ABV0@@Z 1002a795 f   MSVCRT:ti_inst.obj
 0001:000297a0       __allmul                   1002a7a0 f   MSVCRT:llmul.obj
 0001:000297e0       __alldiv                   1002a7e0 f   MSVCRT:lldiv.obj
 0001:0002988a       __onexit                   1002a88a f   MSVCRT:atonexit.obj
 0001:000298b6       _atexit                    1002a8b6 f   MSVCRT:atonexit.obj
 0001:000298d0       __chkstk                   1002a8d0 f   MSVCRT:chkstk.obj
 0001:000298d0       __alloca_probe             1002a8d0 f   MSVCRT:chkstk.obj
 0001:00029900       _strncpy                   1002a900 f   MSVCRT:MSVCRT.dll
 0001:00029906       _rand                      1002a906 f   MSVCRT:MSVCRT.dll
 0001:0002990c       _srand                     1002a90c f   MSVCRT:MSVCRT.dll
 0001:00029912       __CxxThrowException@8      1002a912 f   MSVCRT:MSVCRT.dll
 0001:00029918       _strcspn                   1002a918 f   MSVCRT:MSVCRT.dll
 0001:0002991e       _strstr                    1002a91e f   MSVCRT:MSVCRT.dll
 0001:00029924       __mbsnbcpy                 1002a924 f   MSVCRT:MSVCRT.dll
 0001:0002992a       _time                      1002a92a f   MSVCRT:MSVCRT.dll
 0001:00029930       _strncat                   1002a930 f   MSVCRT:MSVCRT.dll
 0001:00029936       __snprintf                 1002a936 f   MSVCRT:MSVCRT.dll
 0001:0002993c       __ismbcdigit               1002a93c f   MSVCRT:MSVCRT.dll
 0001:00029942       __ismbcspace               1002a942 f   MSVCRT:MSVCRT.dll
 0001:00029948       __wtoi                     1002a948 f   MSVCRT:MSVCRT.dll
 0001:00029950       __aullrem                  1002a950 f   MSVCRT:ullrem.obj
 0001:000299d0       __aulldiv                  1002a9d0 f   MSVCRT:ulldiv.obj
 0001:00029a38       _memcpy                    1002aa38 f   MSVCRT:MSVCRT.dll
 0001:00029a3e       __except_handler3          1002aa3e f   MSVCRT:MSVCRT.dll
 0001:00029a44       ?terminate@@YAXXZ          1002aa44 f   MSVCRT:MSVCRT.dll
 0001:00029a4a       ??1type_info@@UAE@XZ       1002aa4a f   MSVCRT:MSVCRT.dll
 0001:00029a50       ___dllonexit               1002aa50 f   MSVCRT:MSVCRT.dll
 0001:00029a56       ??0CString@@QAE@PBD@Z      1002aa56 f   mfc42:MFC42.DLL
 0001:00029a5c       ??1CString@@QAE@XZ         1002aa5c f   mfc42:MFC42.DLL
 0001:00029a62       ??0CStringArray@@QAE@XZ    1002aa62 f   mfc42:MFC42.DLL
 0001:00029a68       ??1CStringArray@@UAE@XZ    1002aa68 f   mfc42:MFC42.DLL
 0001:00029a6e       ?Format@CString@@QAAXPBDZZ 1002aa6e f   mfc42:MFC42.DLL
 0001:00029a74       ??0CString@@QAE@XZ         1002aa74 f   mfc42:MFC42.DLL
 0001:00029a7a       ??1CStringList@@UAE@XZ     1002aa7a f   mfc42:MFC42.DLL
 0001:00029a80       ?TrimRight@CString@@QAEXXZ 1002aa80 f   mfc42:MFC42.DLL
 0001:00029a86       ?TrimLeft@CString@@QAEXXZ  1002aa86 f   mfc42:MFC42.DLL
 0001:00029a8c       ??4CString@@QAEABV0@ABV0@@Z 1002aa8c f   mfc42:MFC42.DLL
 0001:00029a92       ?RemoveHead@CStringList@@QAE?AVCString@@XZ 1002aa92 f   mfc42:MFC42.DLL
 0001:00029a98       ??0CStringList@@QAE@H@Z    1002aa98 f   mfc42:MFC42.DLL
 0001:00029a9e       ??0CString@@QAE@ABV0@@Z    1002aa9e f   mfc42:MFC42.DLL
 0001:00029aa4       ?SetAtGrow@CStringArray@@QAEXHABVCString@@@Z 1002aaa4 f   mfc42:MFC42.DLL
 0001:00029aaa       ??4CString@@QAEABV0@PBD@Z  1002aaaa f   mfc42:MFC42.DLL
 0001:00029ab0       ?Left@CString@@QBE?AV1@H@Z 1002aab0 f   mfc42:MFC42.DLL
 0001:00029ab6       ?MakeLower@CString@@QAEXXZ 1002aab6 f   mfc42:MFC42.DLL
 0001:00029abc       ?AddTail@CStringList@@QAEPAU__POSITION@@ABVCString@@@Z 1002aabc f   mfc42:MFC42.DLL
 0001:00029ac2       ?SetSize@CStringArray@@QAEXHH@Z 1002aac2 f   mfc42:MFC42.DLL
 0001:00029ac8       ?TrimRight@CString@@QAEXD@Z 1002aac8 f   mfc42:MFC42.DLL
 0001:00029ace       ?TrimLeft@CString@@QAEXD@Z 1002aace f   mfc42:MFC42.DLL
 0001:00029ad4       ?SpanExcluding@CString@@QBE?AV1@PBD@Z 1002aad4 f   mfc42:MFC42.DLL
 0001:00029ada       ?Empty@CString@@QAEXXZ     1002aada f   mfc42:MFC42.DLL
 0001:00029ae0       ?GetRuntimeClass@CObject@@UBEPAUCRuntimeClass@@XZ 1002aae0 f   mfc42:MFC42.DLL
 0001:00029ae6       ?Read@CArchive@@QAEIPAXI@Z 1002aae6 f   mfc42:MFC42.DLL
 0001:00029aec       ?Write@CArchive@@QAEXPBXI@Z 1002aaec f   mfc42:MFC42.DLL
 0001:00029af2       ?ReadCount@CArchive@@QAEKXZ 1002aaf2 f   mfc42:MFC42.DLL
 0001:00029af8       ?WriteCount@CArchive@@QAEXK@Z 1002aaf8 f   mfc42:MFC42.DLL
 0001:00029afe       ?GetBuffer@CString@@QAEPADH@Z 1002aafe f   mfc42:MFC42.DLL
 0001:00029b04       ?GetTickCount@CTime@@SG?AV1@XZ 1002ab04 f   mfc42:MFC42.DLL
 0001:00029b0a       ??1CMapStringToString@@UAE@XZ 1002ab0a f   mfc42:MFC42.DLL
 0001:00029b10       ??0CMapStringToString@@QAE@H@Z 1002ab10 f   mfc42:MFC42.DLL
 0001:00029b16       ?Lookup@CMapStringToString@@QBEHPBDAAVCString@@@Z 1002ab16 f   mfc42:MFC42.DLL
 0001:00029b1c       ?SetSize@CByteArray@@QAEXHH@Z 1002ab1c f   mfc42:MFC42.DLL
 0001:00029b22       ??ACMapStringToString@@QAEAAVCString@@PBD@Z 1002ab22 f   mfc42:MFC42.DLL
 0001:00029b28       ?Mid@CString@@QBE?AV1@H@Z  1002ab28 f   mfc42:MFC42.DLL
 0001:00029b2e       ?Find@CString@@QBEHD@Z     1002ab2e f   mfc42:MFC42.DLL
 0001:00029b34       ??H@YG?AVCString@@PBDABV0@@Z 1002ab34 f   mfc42:MFC42.DLL
 0001:00029b3a       ?MakeUpper@CString@@QAEXXZ 1002ab3a f   mfc42:MFC42.DLL
 0001:00029b40       ?FindOneOf@CString@@QBEHPBD@Z 1002ab40 f   mfc42:MFC42.DLL
 0001:00029b46       ??0CString@@QAE@PBDH@Z     1002ab46 f   mfc42:MFC42.DLL
 0001:00029b4c       ??YCString@@QAEABV0@ABV0@@Z 1002ab4c f   mfc42:MFC42.DLL
 0001:00029b52       ?GetNextAssoc@CMapStringToString@@QBEXAAPAU__POSITION@@AAVCString@@1@Z 1002ab52 f   mfc42:MFC42.DLL
 0001:00029b58       ?FreeDataChain@CPlex@@QAEXXZ 1002ab58 f   mfc42:MFC42.DLL
 0001:00029b5e       ?Create@CPlex@@SGPAU1@AAPAU1@II@Z 1002ab5e f   mfc42:MFC42.DLL
 0001:00029b64       ?Serialize@CByteArray@@UAEXAAVCArchive@@@Z 1002ab64 f   mfc42:MFC42.DLL
 0001:00029b6a       ?GetRuntimeClass@CByteArray@@UBEPAUCRuntimeClass@@XZ 1002ab6a f   mfc42:MFC42.DLL
 0001:00029b70       ??0CByteArray@@QAE@XZ      1002ab70 f   mfc42:MFC42.DLL
 0001:00029b76       ??1CByteArray@@UAE@XZ      1002ab76 f   mfc42:MFC42.DLL
 0001:00029b7c       ?FreeExtra@CByteArray@@QAEXXZ 1002ab7c f   mfc42:MFC42.DLL
 0001:00029b82       ??YCString@@QAEABV0@PBD@Z  1002ab82 f   mfc42:MFC42.DLL
 0001:00029b88       ?Find@CString@@QBEHPBD@Z   1002ab88 f   mfc42:MFC42.DLL
 0001:00029b8e       ?Detach@CAsyncSocket@@QAEIXZ 1002ab8e f   mfc42:MFC42.DLL
 0001:00029b94       ??1CSocket@@UAE@XZ         1002ab94 f   mfc42:MFC42.DLL
 0001:00029b9a       ?Create@CAsyncSocket@@QAEHIHJPBD@Z 1002ab9a f   mfc42:MFC42.DLL
 0001:00029ba0       ??0CSocket@@QAE@XZ         1002aba0 f   mfc42:MFC42.DLL
 0001:00029ba6       ?SendTo@CAsyncSocket@@QAEHPBXHIPBDH@Z 1002aba6 f   mfc42:MFC42.DLL
 0001:00029bac       ?Attach@CAsyncSocket@@QAEHIJ@Z 1002abac f   mfc42:MFC42.DLL
 0001:00029bb2       ??HCOleDateTime@@QBE?AV0@ABVCOleDateTimeSpan@@@Z 1002abb2 f   mfc42:MFC42.DLL
 0001:00029bb8       ?SetDateTimeSpan@COleDateTimeSpan@@QAEXJHHH@Z 1002abb8 f   mfc42:MFC42.DLL
 0001:00029bbe       ?SetDateTime@COleDateTime@@QAEHHHHHHH@Z 1002abbe f   mfc42:MFC42.DLL
 0001:00029bc4       ??1CPtrList@@UAE@XZ        1002abc4 f   mfc42:MFC42.DLL
 0001:00029bca       ??0CPtrList@@QAE@H@Z       1002abca f   mfc42:MFC42.DLL
 0001:00029bd0       ?RemoveAll@CPtrList@@QAEXXZ 1002abd0 f   mfc42:MFC42.DLL
 0001:00029bd6       ?RemoveAt@CPtrList@@QAEXPAU__POSITION@@@Z 1002abd6 f   mfc42:MFC42.DLL
 0001:00029bdc       ?Remove@CString@@QAEHD@Z   1002abdc f   mfc42:MFC42.DLL
 0001:00029be2       ?AfxGetEmptyString@@YGABVCString@@XZ 1002abe2 f   mfc42:MFC42.DLL
 0001:00029be8       ?HashKey@@YGIPBD@Z         1002abe8 f   mfc42:MFC42.DLL
 0001:00029bee       ?FindIndex@CStringList@@QBEPAU__POSITION@@H@Z 1002abee f   mfc42:MFC42.DLL
 0001:00029bf4       ?RemoveAt@CByteArray@@QAEXHH@Z 1002abf4 f   mfc42:MFC42.DLL
 0001:00029bfa       ?ConstructElements@@YGXPAVCString@@H@Z 1002abfa f   mfc42:MFC42.DLL
 0001:00029c00       ?DestructElements@@YGXPAVCString@@H@Z 1002ac00 f   mfc42:MFC42.DLL
 0001:00029c06       ?SerializeElements@@YGXAAVCArchive@@PAVCString@@H@Z 1002ac06 f   mfc42:MFC42.DLL
 0001:00029c0c       ?RemoveAll@CStringList@@QAEXXZ 1002ac0c f   mfc42:MFC42.DLL
 0001:00029c12       ?Mid@CString@@QBE?AV1@HH@Z 1002ac12 f   mfc42:MFC42.DLL
 0001:00029c18       ??0CString@@QAE@DH@Z       1002ac18 f   mfc42:MFC42.DLL
 0001:00029c1e       ?GetSecond@COleDateTime@@QBEHXZ 1002ac1e f   mfc42:MFC42.DLL
 0001:00029c24       ?GetMinute@COleDateTime@@QBEHXZ 1002ac24 f   mfc42:MFC42.DLL
 0001:00029c2a       ?GetHour@COleDateTime@@QBEHXZ 1002ac2a f   mfc42:MFC42.DLL
 0001:00029c30       ?GetDay@COleDateTime@@QBEHXZ 1002ac30 f   mfc42:MFC42.DLL
 0001:00029c36       ?GetMonth@COleDateTime@@QBEHXZ 1002ac36 f   mfc42:MFC42.DLL
 0001:00029c3c       ?GetYear@COleDateTime@@QBEHXZ 1002ac3c f   mfc42:MFC42.DLL
 0001:00029c56       ??0_AFX_DLL_MODULE_STATE@@QAE@XZ 1002ac56 f i mfcs42:dllmodul.obj
 0001:00029c74       ??_E_AFX_DLL_MODULE_STATE@@UAEPAXI@Z 1002ac74 f i mfcs42:dllmodul.obj
 0001:00029c74       ??_G_AFX_DLL_MODULE_STATE@@UAEPAXI@Z 1002ac74 f i mfcs42:dllmodul.obj
 0001:00029c8f       ??1_AFX_DLL_MODULE_STATE@@UAE@XZ 1002ac8f f i mfcs42:dllmodul.obj
 0001:00029caa       ?AfxWndProcDllStatic@@YGJPAUHWND__@@IIJ@Z 1002acaa f   mfcs42:dllmodul.obj
 0001:00029cef       ?AfxGetStaticModuleState@@YGPAVAFX_MODULE_STATE@@XZ 1002acef f   mfcs42:dllmodul.obj
 0001:00029cf5       _DllMain@12                1002acf5 f   mfcs42:dllmodul.obj
 0001:00029e1c       _RawDllMain@12             1002ae1c f   mfcs42:dllmodul.obj
 0001:00029e6d       ??1AFX_MAINTAIN_STATE2@@QAE@XZ 1002ae6d f i mfcs42:dllmodul.obj
 0001:00029e76       _GetTickCount@0            1002ae76 f   kernel32:KERNEL32.dll
 0001:00029e7c       _InterlockedIncrement@4    1002ae7c f   kernel32:KERNEL32.dll
 0001:00029e82       _InterlockedDecrement@4    1002ae82 f   kernel32:KERNEL32.dll
 0001:00029e88       _LeaveCriticalSection@4    1002ae88 f   kernel32:KERNEL32.dll
 0001:00029e8e       _EnterCriticalSection@4    1002ae8e f   kernel32:KERNEL32.dll
 0001:00029e94       _CreateSemaphoreA@16       1002ae94 f   kernel32:KERNEL32.dll
 0001:00029e9a       _InitializeCriticalSection@4 1002ae9a f   kernel32:KERNEL32.dll
 0001:00029ea0       _CloseHandle@4             1002aea0 f   kernel32:KERNEL32.dll
 0001:00029ea6       _DeleteCriticalSection@4   1002aea6 f   kernel32:KERNEL32.dll
 0001:00029eac       _ReleaseSemaphore@12       1002aeac f   kernel32:KERNEL32.dll
 0001:00029eb2       _WaitForSingleObject@8     1002aeb2 f   kernel32:KERNEL32.dll
 0001:00029eb8       _Sleep@4                   1002aeb8 f   kernel32:KERNEL32.dll
 0001:00029ebe       _CreateThread@24           1002aebe f   kernel32:KERNEL32.dll
 0001:00029ec4       _GetModuleFileNameA@12     1002aec4 f   kernel32:KERNEL32.dll
 0001:00029eca       _GetModuleHandleA@4        1002aeca f   kernel32:KERNEL32.dll
 0001:00029ed0       _CreateEventA@16           1002aed0 f   kernel32:KERNEL32.dll
 0001:00029ed6       _SetEvent@4                1002aed6 f   kernel32:KERNEL32.dll
 0001:00029edc       _WaitForMultipleObjects@16 1002aedc f   kernel32:KERNEL32.dll
 0001:00029ee2       _ResetEvent@4              1002aee2 f   kernel32:KERNEL32.dll
 0001:00029ee8       _FormatMessageA@28         1002aee8 f   kernel32:KERNEL32.dll
 0001:00029eee       _GetProcAddress@8          1002aeee f   kernel32:KERNEL32.dll
 0001:00029ef4       _LoadLibraryA@4            1002aef4 f   kernel32:KERNEL32.dll
 0001:00029efa       _InterlockedExchange@8     1002aefa f   kernel32:KERNEL32.dll
 0001:00029f00       _lstrlenA@4                1002af00 f   kernel32:KERNEL32.dll
 0001:00029f06       _GetVersionExA@4           1002af06 f   kernel32:KERNEL32.dll
 0001:00029f0c       _DisableThreadLibraryCalls@4 1002af0c f   kernel32:KERNEL32.dll
 0001:00029f12       _DuplicateHandle@28        1002af12 f   kernel32:KERNEL32.dll
 0001:00029f18       _GetCurrentProcess@0       1002af18 f   kernel32:KERNEL32.dll
 0001:00029f1e       _GetCurrentThreadId@0      1002af1e f   kernel32:KERNEL32.dll
 0001:00029f24       _GetSystemInfo@4           1002af24 f   kernel32:KERNEL32.dll
 0001:00029f2a       _VirtualAlloc@16           1002af2a f   kernel32:KERNEL32.dll
 0001:00029f30       _VirtualFree@12            1002af30 f   kernel32:KERNEL32.dll
 0001:00029f36       _FreeLibrary@4             1002af36 f   kernel32:KERNEL32.dll
 0001:00029f3c       _MultiByteToWideChar@24    1002af3c f   kernel32:KERNEL32.dll
 0001:00029f42       _WideCharToMultiByte@32    1002af42 f   kernel32:KERNEL32.dll
 0001:00029f48       _GetACP@0                  1002af48 f   kernel32:KERNEL32.dll
 0001:00029f4e       _SetThreadPriority@8       1002af4e f   kernel32:KERNEL32.dll
 0001:00029f54       _GetThreadPriority@4       1002af54 f   kernel32:KERNEL32.dll
 0001:00029f5a       _GetCurrentThread@0        1002af5a f   kernel32:KERNEL32.dll
 0001:00029f60       _GetLastError@0            1002af60 f   kernel32:KERNEL32.dll
 0001:00029f66       _SetErrorMode@4            1002af66 f   kernel32:KERNEL32.dll
 0001:00029f6c       _lstrcmpiA@8               1002af6c f   kernel32:KERNEL32.dll
 0001:00029f72       _LocalFree@4               1002af72 f   kernel32:KERNEL32.dll
 0001:00029f78       _LocalAlloc@8              1002af78 f   kernel32:KERNEL32.dll
 0001:00029f7e       _LoadStringA@16            1002af7e f   user32:USER32.dll
 0001:00029f84       _DrawTextA@20              1002af84 f   user32:USER32.dll
 0001:00029f8a       _GetWindowTextA@12         1002af8a f   user32:USER32.dll
 0001:00029f90       _FillRect@12               1002af90 f   user32:USER32.dll
 0001:00029f96       _GetSysColor@4             1002af96 f   user32:USER32.dll
 0001:00029f9c       _CreateWindowExA@48        1002af9c f   user32:USER32.dll
 0001:00029fa2       _GetClientRect@8           1002afa2 f   user32:USER32.dll
 0001:00029fa8       _SetWindowLongA@12         1002afa8 f   user32:USER32.dll
 0001:00029fae       _EnableWindow@8            1002afae f   user32:USER32.dll
 0001:00029fb4       _LoadBitmapA@8             1002afb4 f   user32:USER32.dll
 0001:00029fba       _GetDlgItem@8              1002afba f   user32:USER32.dll
 0001:00029fc0       _SetDlgItemInt@16          1002afc0 f   user32:USER32.dll
 0001:00029fc6       _SendMessageA@16           1002afc6 f   user32:USER32.dll
 0001:00029fcc       _GetDlgCtrlID@4            1002afcc f   user32:USER32.dll
 0001:00029fd2       _DestroyWindow@4           1002afd2 f   user32:USER32.dll
 0001:00029fd8       _CallWindowProcA@20        1002afd8 f   user32:USER32.dll
 0001:00029fde       _GetParent@4               1002afde f   user32:USER32.dll
 0001:00029fe4       _GetWindowLongA@8          1002afe4 f   user32:USER32.dll
 0001:00029fea       _CheckDlgButton@12         1002afea f   user32:USER32.dll
 0001:00029ff0       _SetWindowTextA@8          1002aff0 f   user32:USER32.dll
 0001:00029ff6       _SetDlgItemTextA@12        1002aff6 f   user32:USER32.dll
 0001:00029ffc       _IsDlgButtonChecked@8      1002affc f   user32:USER32.dll
 0001:0002a002       _MessageBoxA@16            1002b002 f   user32:USER32.dll
 0001:0002a008       _wvsprintfA@12             1002b008 f   user32:USER32.dll
 0001:0002a00e       _PeekMessageA@20           1002b00e f   user32:USER32.dll
 0001:0002a014       _MsgWaitForMultipleObjects@20 1002b014 f   user32:USER32.dll
 0001:0002a01a       _wsprintfA                 1002b01a f   user32:USER32.dll
 0001:0002a020       _PostThreadMessageA@16     1002b020 f   user32:USER32.dll
 0001:0002a026       _RegisterWindowMessageA@4  1002b026 f   user32:USER32.dll
 0001:0002a02c       _GetQueueStatus@4          1002b02c f   user32:USER32.dll
 0001:0002a032       _DispatchMessageA@4        1002b032 f   user32:USER32.dll
 0001:0002a038       _CreateDialogParamA@20     1002b038 f   user32:USER32.dll
 0001:0002a03e       _MoveWindow@24             1002b03e f   user32:USER32.dll
 0001:0002a044       _InvalidateRect@12         1002b044 f   user32:USER32.dll
 0001:0002a04a       _ShowWindow@8              1002b04a f   user32:USER32.dll
 0001:0002a050       _DefWindowProcA@16         1002b050 f   user32:USER32.dll
 0001:0002a056       _LoadStringW@16            1002b056 f   user32:USER32.dll
 0001:0002a05c       _GetWindowRect@8           1002b05c f   user32:USER32.dll
 0001:0002a062       _GetDesktopWindow@0        1002b062 f   user32:USER32.dll
 0001:0002a068       _DeleteDC@4                1002b068 f   gdi32:GDI32.dll
 0001:0002a06e       _BitBlt@36                 1002b06e f   gdi32:GDI32.dll
 0001:0002a074       _GetObjectA@12             1002b074 f   gdi32:GDI32.dll
 0001:0002a07a       _CreateCompatibleDC@4      1002b07a f   gdi32:GDI32.dll
 0001:0002a080       _SelectObject@8            1002b080 f   gdi32:GDI32.dll
 0001:0002a086       _SetBkMode@8               1002b086 f   gdi32:GDI32.dll
 0001:0002a08c       _SetTextColor@8            1002b08c f   gdi32:GDI32.dll
 0001:0002a092       _DeleteObject@4            1002b092 f   gdi32:GDI32.dll
 0001:0002a098       _CreateSolidBrush@4        1002b098 f   gdi32:GDI32.dll
 0001:0002a09e       _CreateFontA@56            1002b09e f   gdi32:GDI32.dll
 0001:0002a0a4       _RegDeleteKeyA@8           1002b0a4 f   advapi32:ADVAPI32.dll
 0001:0002a0aa       _RegCloseKey@4             1002b0aa f   advapi32:ADVAPI32.dll
 0001:0002a0b0       _RegEnumKeyExA@32          1002b0b0 f   advapi32:ADVAPI32.dll
 0001:0002a0b6       _RegOpenKeyExA@20          1002b0b6 f   advapi32:ADVAPI32.dll
 0001:0002a0bc       _RegSetValueExA@24         1002b0bc f   advapi32:ADVAPI32.dll
 0001:0002a0c2       _RegSetValueA@20           1002b0c2 f   advapi32:ADVAPI32.dll
 0001:0002a0c8       _RegCreateKeyA@12          1002b0c8 f   advapi32:ADVAPI32.dll
 0001:0002a0ce       _CoTaskMemAlloc@4          1002b0ce f   ole32:ole32.dll
 0001:0002a0d4       _CoCreateInstance@20       1002b0d4 f   ole32:ole32.dll
 0001:0002a0da       _CoTaskMemFree@4           1002b0da f   ole32:ole32.dll
 0001:0002a0e0       _CoUninitialize@0          1002b0e0 f   ole32:ole32.dll
 0001:0002a0e6       _CoFreeUnusedLibraries@0   1002b0e6 f   ole32:ole32.dll
 0001:0002a0ec       _CoInitialize@4            1002b0ec f   ole32:ole32.dll
 0001:0002a0f2       _StringFromGUID2@12        1002b0f2 f   ole32:ole32.dll
 0001:0002a0f8       _SysAllocString@4          1002b0f8 f   oleaut32:OLEAUT32.dll
 0001:0002a0fe       _SysFreeString@4           1002b0fe f   oleaut32:OLEAUT32.dll
 0001:0002a104       _WSAStartup@8              1002b104 f   wsock32:WSOCK32.dll
 0001:0002a10a       _setsockopt@20             1002b10a f   wsock32:WSOCK32.dll
 0001:0002a110       _closesocket@4             1002b110 f   wsock32:WSOCK32.dll
 0001:0002a116       _recvfrom@24               1002b116 f   wsock32:WSOCK32.dll
 0001:0002a11c       _send@16                   1002b11c f   wsock32:WSOCK32.dll
 0001:0002a122       ___WSAFDIsSet@8            1002b122 f   wsock32:WSOCK32.dll
 0001:0002a128       _select@20                 1002b128 f   wsock32:WSOCK32.dll
 0001:0002a12e       _WSAGetLastError@0         1002b12e f   wsock32:WSOCK32.dll
 0001:0002a134       _connect@12                1002b134 f   wsock32:WSOCK32.dll
 0001:0002a13a       _htons@4                   1002b13a f   wsock32:WSOCK32.dll
 0001:0002a140       _gethostbyname@4           1002b140 f   wsock32:WSOCK32.dll
 0001:0002a146       _inet_addr@4               1002b146 f   wsock32:WSOCK32.dll
 0001:0002a14c       _ioctlsocket@12            1002b14c f   wsock32:WSOCK32.dll
 0001:0002a152       _socket@12                 1002b152 f   wsock32:WSOCK32.dll
 0001:0002a158       _ntohl@4                   1002b158 f   wsock32:WSOCK32.dll
 0001:0002a15e       _ntohs@4                   1002b15e f   wsock32:WSOCK32.dll
 0001:0002a164       _htonl@4                   1002b164 f   wsock32:WSOCK32.dll
 0001:0002a16a       ??0Init@ios_base@std@@QAE@XZ 1002b16a f   msvcprt:MSVCP60.dll
 0001:0002a170       ??1Init@ios_base@std@@QAE@XZ 1002b170 f   msvcprt:MSVCP60.dll
 0001:0002a176       ??0_Winit@std@@QAE@XZ      1002b176 f   msvcprt:MSVCP60.dll
 0001:0002a17c       ??1_Winit@std@@QAE@XZ      1002b17c f   msvcprt:MSVCP60.dll
 0001:0002a182       _InternetCloseHandle@4     1002b182 f   Wininet:WININET.dll
 0001:0002a188       _InternetReadFile@16       1002b188 f   Wininet:WININET.dll
 0001:0002a18e       _HttpQueryInfoA@20         1002b18e f   Wininet:WININET.dll
 0001:0002a194       _HttpSendRequestA@20       1002b194 f   Wininet:WININET.dll
 0001:0002a19a       _HttpAddRequestHeadersA@16 1002b19a f   Wininet:WININET.dll
 0001:0002a1a0       _HttpOpenRequestA@32       1002b1a0 f   Wininet:WININET.dll
 0001:0002a1a6       _InternetConnectA@32       1002b1a6 f   Wininet:WININET.dll
 0001:0002a1ac       _InternetOpenA@20          1002b1ac f   Wininet:WININET.dll
 0001:0002a1b2       _InternetSetOptionA@16     1002b1b2 f   Wininet:WININET.dll
 0001:0002a1b8       _VerQueryValueA@16         1002b1b8 f   version:VERSION.dll
 0001:0002a1be       _GetFileVersionInfoA@16    1002b1be f   version:VERSION.dll
 0001:0002a1c4       _GetFileVersionInfoSizeA@8 1002b1c4 f   version:VERSION.dll
 0001:0002a1ca       _RpcStringFreeA@4          1002b1ca f   Rpcrt4:RPCRT4.dll
 0001:0002a1d0       _UuidToStringA@8           1002b1d0 f   Rpcrt4:RPCRT4.dll
 0001:0002a1d6       _UuidCreate@4              1002b1d6 f   Rpcrt4:RPCRT4.dll
 0001:0002a1dc       _WSASocketA@24             1002b1dc f   ws2_32:WS2_32.dll
 0001:0002a1e2       _WSARecv@28                1002b1e2 f   ws2_32:WS2_32.dll
 0001:0002a1e8       _WSACreateEvent@0          1002b1e8 f   ws2_32:WS2_32.dll
 0001:0002a1ee       _WSAResetEvent@4           1002b1ee f   ws2_32:WS2_32.dll
 0001:0002a1f4       _WSAEventSelect@12         1002b1f4 f   ws2_32:WS2_32.dll
 0001:0002a1fa       _WSAEnumNetworkEvents@12   1002b1fa f   ws2_32:WS2_32.dll
 0001:0002a200       _WSAWaitForMultipleEvents@20 1002b200 f   ws2_32:WS2_32.dll
 0001:0002a206       _WSACloseEvent@4           1002b206 f   ws2_32:WS2_32.dll
 0001:0002a20c       _WSAConnect@28             1002b20c f   ws2_32:WS2_32.dll
 0001:0002a214       __EH_prolog                1002b214 f   MSVCRT:ehprolog.obj
 0001:0002a234       ??0AFX_MODULE_STATE@@QAE@HP6GJPAUHWND__@@IIJ@ZK@Z 1002b234 f   mfc42:MFC42.DLL
 0001:0002a23a       ??3CNoTrackObject@@SGXPAX@Z 1002b23a f   mfc42:MFC42.DLL
 0001:0002a240       ??1AFX_MODULE_STATE@@UAE@XZ 1002b240 f   mfc42:MFC42.DLL
 0001:0002a246       ?AfxWndProc@@YGJPAUHWND__@@IIJ@Z 1002b246 f   mfc42:MFC42.DLL
 0001:0002a24c       ??0AFX_MAINTAIN_STATE2@@QAE@PAVAFX_MODULE_STATE@@@Z 1002b24c f   mfc42:MFC42.DLL
 0001:0002a252       ?AfxTermThread@@YGXPAUHINSTANCE__@@@Z 1002b252 f   mfc42:MFC42.DLL
 0001:0002a258       ?AfxTermExtensionModule@@YGXAAUAFX_EXTENSION_MODULE@@H@Z 1002b258 f   mfc42:MFC42.DLL
 0001:0002a25e       ?AfxUnlockTempMaps@@YGHH@Z 1002b25e f   mfc42:MFC42.DLL
 0001:0002a264       ?AfxLockTempMaps@@YGXXZ    1002b264 f   mfc42:MFC42.DLL
 0001:0002a26a       ?AfxSetModuleState@@YGPAVAFX_MODULE_STATE@@PAV1@@Z 1002b26a f   mfc42:MFC42.DLL
 0001:0002a270       ??0CDynLinkLibrary@@QAE@AAUAFX_EXTENSION_MODULE@@H@Z 1002b270 f   mfc42:MFC42.DLL
 0001:0002a276       ?AfxInitExtensionModule@@YGHAAUAFX_EXTENSION_MODULE@@PAUHINSTANCE__@@@Z 1002b276 f   mfc42:MFC42.DLL
 0001:0002a27c       ?AfxWinTerm@@YGXXZ         1002b27c f   mfc42:MFC42.DLL
 0001:0002a282       ?AfxGetModuleState@@YGPAVAFX_MODULE_STATE@@XZ 1002b282 f   mfc42:MFC42.DLL
 0001:0002a288       ?AfxWinInit@@YGHPAUHINSTANCE__@@0PADH@Z 1002b288 f   mfc42:MFC42.DLL
 0001:0002a28e       ?AfxGetThreadState@@YGPAV_AFX_THREAD_STATE@@XZ 1002b28e f   mfc42:MFC42.DLL
 0001:0002a294       ?AfxCoreInitModule@@YGXXZ  1002b294 f   mfc42:MFC42.DLL
 0002:00000000       __imp__RegCreateKeyA@12    1002f000     advapi32:ADVAPI32.dll
 0002:00000004       __imp__RegSetValueA@20     1002f004     advapi32:ADVAPI32.dll
 0002:00000008       __imp__RegSetValueExA@24   1002f008     advapi32:ADVAPI32.dll
 0002:0000000c       __imp__RegOpenKeyExA@20    1002f00c     advapi32:ADVAPI32.dll
 0002:00000010       __imp__RegEnumKeyExA@32    1002f010     advapi32:ADVAPI32.dll
 0002:00000014       __imp__RegCloseKey@4       1002f014     advapi32:ADVAPI32.dll
 0002:00000018       __imp__RegDeleteKeyA@8     1002f018     advapi32:ADVAPI32.dll
 0002:0000001c       \177ADVAPI32_NULL_THUNK_DATA 1002f01c     advapi32:ADVAPI32.dll
 0002:00000020       __imp__CreateFontA@56      1002f020     gdi32:GDI32.dll
 0002:00000024       __imp__CreateSolidBrush@4  1002f024     gdi32:GDI32.dll
 0002:00000028       __imp__DeleteObject@4      1002f028     gdi32:GDI32.dll
 0002:0000002c       __imp__SetTextColor@8      1002f02c     gdi32:GDI32.dll
 0002:00000030       __imp__SetBkMode@8         1002f030     gdi32:GDI32.dll
 0002:00000034       __imp__CreateCompatibleDC@4 1002f034     gdi32:GDI32.dll
 0002:00000038       __imp__GetObjectA@12       1002f038     gdi32:GDI32.dll
 0002:0000003c       __imp__BitBlt@36           1002f03c     gdi32:GDI32.dll
 0002:00000040       __imp__SelectObject@8      1002f040     gdi32:GDI32.dll
 0002:00000044       __imp__DeleteDC@4          1002f044     gdi32:GDI32.dll
 0002:00000048       \177GDI32_NULL_THUNK_DATA  1002f048     gdi32:GDI32.dll
 0002:0000004c       __imp__FreeLibrary@4       1002f04c     kernel32:KERNEL32.dll
 0002:00000050       __imp__MultiByteToWideChar@24 1002f050     kernel32:KERNEL32.dll
 0002:00000054       __imp__GetACP@0            1002f054     kernel32:KERNEL32.dll
 0002:00000058       __imp__SetThreadPriority@8 1002f058     kernel32:KERNEL32.dll
 0002:0000005c       __imp__GetThreadPriority@4 1002f05c     kernel32:KERNEL32.dll
 0002:00000060       __imp__GetCurrentThread@0  1002f060     kernel32:KERNEL32.dll
 0002:00000064       __imp__GetLastError@0      1002f064     kernel32:KERNEL32.dll
 0002:00000068       __imp__SetErrorMode@4      1002f068     kernel32:KERNEL32.dll
 0002:0000006c       __imp__lstrcmpiA@8         1002f06c     kernel32:KERNEL32.dll
 0002:00000070       __imp__LocalFree@4         1002f070     kernel32:KERNEL32.dll
 0002:00000074       __imp__LocalAlloc@8        1002f074     kernel32:KERNEL32.dll
 0002:00000078       __imp__VirtualFree@12      1002f078     kernel32:KERNEL32.dll
 0002:0000007c       __imp__VirtualAlloc@16     1002f07c     kernel32:KERNEL32.dll
 0002:00000080       __imp__GetSystemInfo@4     1002f080     kernel32:KERNEL32.dll
 0002:00000084       __imp__GetCurrentThreadId@0 1002f084     kernel32:KERNEL32.dll
 0002:00000088       __imp__GetCurrentProcess@0 1002f088     kernel32:KERNEL32.dll
 0002:0000008c       __imp__DuplicateHandle@28  1002f08c     kernel32:KERNEL32.dll
 0002:00000090       __imp__DisableThreadLibraryCalls@4 1002f090     kernel32:KERNEL32.dll
 0002:00000094       __imp__GetVersionExA@4     1002f094     kernel32:KERNEL32.dll
 0002:00000098       __imp__lstrlenA@4          1002f098     kernel32:KERNEL32.dll
 0002:0000009c       __imp__InterlockedExchange@8 1002f09c     kernel32:KERNEL32.dll
 0002:000000a0       __imp__LoadLibraryA@4      1002f0a0     kernel32:KERNEL32.dll
 0002:000000a4       __imp__GetProcAddress@8    1002f0a4     kernel32:KERNEL32.dll
 0002:000000a8       __imp__FormatMessageA@28   1002f0a8     kernel32:KERNEL32.dll
 0002:000000ac       __imp__ResetEvent@4        1002f0ac     kernel32:KERNEL32.dll
 0002:000000b0       __imp__WaitForMultipleObjects@16 1002f0b0     kernel32:KERNEL32.dll
 0002:000000b4       __imp__SetEvent@4          1002f0b4     kernel32:KERNEL32.dll
 0002:000000b8       __imp__CreateEventA@16     1002f0b8     kernel32:KERNEL32.dll
 0002:000000bc       __imp__GetModuleHandleA@4  1002f0bc     kernel32:KERNEL32.dll
 0002:000000c0       __imp__GetModuleFileNameA@12 1002f0c0     kernel32:KERNEL32.dll
 0002:000000c4       __imp__CreateThread@24     1002f0c4     kernel32:KERNEL32.dll
 0002:000000c8       __imp__Sleep@4             1002f0c8     kernel32:KERNEL32.dll
 0002:000000cc       __imp__WaitForSingleObject@8 1002f0cc     kernel32:KERNEL32.dll
 0002:000000d0       __imp__ReleaseSemaphore@12 1002f0d0     kernel32:KERNEL32.dll
 0002:000000d4       __imp__DeleteCriticalSection@4 1002f0d4     kernel32:KERNEL32.dll
 0002:000000d8       __imp__CloseHandle@4       1002f0d8     kernel32:KERNEL32.dll
 0002:000000dc       __imp__InitializeCriticalSection@4 1002f0dc     kernel32:KERNEL32.dll
 0002:000000e0       __imp__CreateSemaphoreA@16 1002f0e0     kernel32:KERNEL32.dll
 0002:000000e4       __imp__EnterCriticalSection@4 1002f0e4     kernel32:KERNEL32.dll
 0002:000000e8       __imp__LeaveCriticalSection@4 1002f0e8     kernel32:KERNEL32.dll
 0002:000000ec       __imp__InterlockedDecrement@4 1002f0ec     kernel32:KERNEL32.dll
 0002:000000f0       __imp__InterlockedIncrement@4 1002f0f0     kernel32:KERNEL32.dll
 0002:000000f4       __imp__GetTickCount@0      1002f0f4     kernel32:KERNEL32.dll
 0002:000000f8       __imp__WideCharToMultiByte@32 1002f0f8     kernel32:KERNEL32.dll
 0002:000000fc       \177KERNEL32_NULL_THUNK_DATA 1002f0fc     kernel32:KERNEL32.dll
 0002:00000100       __imp_?Lookup@CMapStringToString@@QBEHPBDAAVCString@@@Z 1002f100     mfc42:MFC42.DLL
 0002:00000104       __imp_?SetSize@CByteArray@@QAEXHH@Z 1002f104     mfc42:MFC42.DLL
 0002:00000108       __imp_??ACMapStringToString@@QAEAAVCString@@PBD@Z 1002f108     mfc42:MFC42.DLL
 0002:0000010c       __imp_?Mid@CString@@QBE?AV1@H@Z 1002f10c     mfc42:MFC42.DLL
 0002:00000110       __imp_?Find@CString@@QBEHD@Z 1002f110     mfc42:MFC42.DLL
 0002:00000114       __imp_??H@YG?AVCString@@PBDABV0@@Z 1002f114     mfc42:MFC42.DLL
 0002:00000118       __imp_?MakeUpper@CString@@QAEXXZ 1002f118     mfc42:MFC42.DLL
 0002:0000011c       __imp_?FindOneOf@CString@@QBEHPBD@Z 1002f11c     mfc42:MFC42.DLL
 0002:00000120       __imp_??0CString@@QAE@PBDH@Z 1002f120     mfc42:MFC42.DLL
 0002:00000124       __imp_??YCString@@QAEABV0@ABV0@@Z 1002f124     mfc42:MFC42.DLL
 0002:00000128       __imp_?GetNextAssoc@CMapStringToString@@QBEXAAPAU__POSITION@@AAVCString@@1@Z 1002f128     mfc42:MFC42.DLL
 0002:0000012c       __imp_?FreeDataChain@CPlex@@QAEXXZ 1002f12c     mfc42:MFC42.DLL
 0002:00000130       __imp_?Create@CPlex@@SGPAU1@AAPAU1@II@Z 1002f130     mfc42:MFC42.DLL
 0002:00000134       __imp_?Serialize@CByteArray@@UAEXAAVCArchive@@@Z 1002f134     mfc42:MFC42.DLL
 0002:00000138       __imp_?GetRuntimeClass@CByteArray@@UBEPAUCRuntimeClass@@XZ 1002f138     mfc42:MFC42.DLL
 0002:0000013c       __imp_??0CByteArray@@QAE@XZ 1002f13c     mfc42:MFC42.DLL
 0002:00000140       __imp_??1CByteArray@@UAE@XZ 1002f140     mfc42:MFC42.DLL
 0002:00000144       __imp_?FreeExtra@CByteArray@@QAEXXZ 1002f144     mfc42:MFC42.DLL
 0002:00000148       __imp_??0CMapStringToString@@QAE@H@Z 1002f148     mfc42:MFC42.DLL
 0002:0000014c       __imp_?Find@CString@@QBEHPBD@Z 1002f14c     mfc42:MFC42.DLL
 0002:00000150       __imp_?Detach@CAsyncSocket@@QAEIXZ 1002f150     mfc42:MFC42.DLL
 0002:00000154       __imp_??1CSocket@@UAE@XZ   1002f154     mfc42:MFC42.DLL
 0002:00000158       __imp_?Create@CAsyncSocket@@QAEHIHJPBD@Z 1002f158     mfc42:MFC42.DLL
 0002:0000015c       __imp_??0CSocket@@QAE@XZ   1002f15c     mfc42:MFC42.DLL
 0002:00000160       __imp_?SendTo@CAsyncSocket@@QAEHPBXHIPBDH@Z 1002f160     mfc42:MFC42.DLL
 0002:00000164       __imp_?Attach@CAsyncSocket@@QAEHIJ@Z 1002f164     mfc42:MFC42.DLL
 0002:00000168       __imp_??HCOleDateTime@@QBE?AV0@ABVCOleDateTimeSpan@@@Z 1002f168     mfc42:MFC42.DLL
 0002:0000016c       __imp_?SetDateTimeSpan@COleDateTimeSpan@@QAEXJHHH@Z 1002f16c     mfc42:MFC42.DLL
 0002:00000170       __imp_?SetDateTime@COleDateTime@@QAEHHHHHHH@Z 1002f170     mfc42:MFC42.DLL
 0002:00000174       __imp_??1CPtrList@@UAE@XZ  1002f174     mfc42:MFC42.DLL
 0002:00000178       __imp_??0CPtrList@@QAE@H@Z 1002f178     mfc42:MFC42.DLL
 0002:0000017c       __imp_?RemoveAll@CPtrList@@QAEXXZ 1002f17c     mfc42:MFC42.DLL
 0002:00000180       __imp_?RemoveAt@CPtrList@@QAEXPAU__POSITION@@@Z 1002f180     mfc42:MFC42.DLL
 0002:00000184       __imp_?Remove@CString@@QAEHD@Z 1002f184     mfc42:MFC42.DLL
 0002:00000188       __imp_?AfxGetEmptyString@@YGABVCString@@XZ 1002f188     mfc42:MFC42.DLL
 0002:0000018c       __imp_?HashKey@@YGIPBD@Z   1002f18c     mfc42:MFC42.DLL
 0002:00000190       __imp_?FindIndex@CStringList@@QBEPAU__POSITION@@H@Z 1002f190     mfc42:MFC42.DLL
 0002:00000194       __imp_?RemoveAt@CByteArray@@QAEXHH@Z 1002f194     mfc42:MFC42.DLL
 0002:00000198       __imp_?ConstructElements@@YGXPAVCString@@H@Z 1002f198     mfc42:MFC42.DLL
 0002:0000019c       __imp_?DestructElements@@YGXPAVCString@@H@Z 1002f19c     mfc42:MFC42.DLL
 0002:000001a0       __imp_?SerializeElements@@YGXAAVCArchive@@PAVCString@@H@Z 1002f1a0     mfc42:MFC42.DLL
 0002:000001a4       __imp_?RemoveAll@CStringList@@QAEXXZ 1002f1a4     mfc42:MFC42.DLL
 0002:000001a8       __imp_?Mid@CString@@QBE?AV1@HH@Z 1002f1a8     mfc42:MFC42.DLL
 0002:000001ac       __imp_??0CString@@QAE@DH@Z 1002f1ac     mfc42:MFC42.DLL
 0002:000001b0       __imp_?GetSecond@COleDateTime@@QBEHXZ 1002f1b0     mfc42:MFC42.DLL
 0002:000001b4       __imp_?GetMinute@COleDateTime@@QBEHXZ 1002f1b4     mfc42:MFC42.DLL
 0002:000001b8       __imp_?GetHour@COleDateTime@@QBEHXZ 1002f1b8     mfc42:MFC42.DLL
 0002:000001bc       __imp_?GetDay@COleDateTime@@QBEHXZ 1002f1bc     mfc42:MFC42.DLL
 0002:000001c0       __imp_?GetMonth@COleDateTime@@QBEHXZ 1002f1c0     mfc42:MFC42.DLL
 0002:000001c4       __imp_?GetYear@COleDateTime@@QBEHXZ 1002f1c4     mfc42:MFC42.DLL
 0002:000001c8       __imp_??1CMapStringToString@@UAE@XZ 1002f1c8     mfc42:MFC42.DLL
 0002:000001cc       __imp_?GetTickCount@CTime@@SG?AV1@XZ 1002f1cc     mfc42:MFC42.DLL
 0002:000001d0       __imp_?GetBuffer@CString@@QAEPADH@Z 1002f1d0     mfc42:MFC42.DLL
 0002:000001d4       __imp_?WriteCount@CArchive@@QAEXK@Z 1002f1d4     mfc42:MFC42.DLL
 0002:000001d8       __imp_?ReadCount@CArchive@@QAEKXZ 1002f1d8     mfc42:MFC42.DLL
 0002:000001dc       __imp_?Write@CArchive@@QAEXPBXI@Z 1002f1dc     mfc42:MFC42.DLL
 0002:000001e0       __imp_?Read@CArchive@@QAEIPAXI@Z 1002f1e0     mfc42:MFC42.DLL
 0002:000001e4       __imp_?GetRuntimeClass@CObject@@UBEPAUCRuntimeClass@@XZ 1002f1e4     mfc42:MFC42.DLL
 0002:000001e8       __imp_?Empty@CString@@QAEXXZ 1002f1e8     mfc42:MFC42.DLL
 0002:000001ec       __imp_?SpanExcluding@CString@@QBE?AV1@PBD@Z 1002f1ec     mfc42:MFC42.DLL
 0002:000001f0       __imp_?TrimLeft@CString@@QAEXD@Z 1002f1f0     mfc42:MFC42.DLL
 0002:000001f4       __imp_?TrimRight@CString@@QAEXD@Z 1002f1f4     mfc42:MFC42.DLL
 0002:000001f8       __imp_?SetSize@CStringArray@@QAEXHH@Z 1002f1f8     mfc42:MFC42.DLL
 0002:000001fc       __imp_?AddTail@CStringList@@QAEPAU__POSITION@@ABVCString@@@Z 1002f1fc     mfc42:MFC42.DLL
 0002:00000200       __imp_?MakeLower@CString@@QAEXXZ 1002f200     mfc42:MFC42.DLL
 0002:00000204       __imp_?Left@CString@@QBE?AV1@H@Z 1002f204     mfc42:MFC42.DLL
 0002:00000208       __imp_??4CString@@QAEABV0@PBD@Z 1002f208     mfc42:MFC42.DLL
 0002:0000020c       __imp_?SetAtGrow@CStringArray@@QAEXHABVCString@@@Z 1002f20c     mfc42:MFC42.DLL
 0002:00000210       __imp_??0CString@@QAE@ABV0@@Z 1002f210     mfc42:MFC42.DLL
 0002:00000214       __imp_??0CStringList@@QAE@H@Z 1002f214     mfc42:MFC42.DLL
 0002:00000218       __imp_?RemoveHead@CStringList@@QAE?AVCString@@XZ 1002f218     mfc42:MFC42.DLL
 0002:0000021c       __imp_??4CString@@QAEABV0@ABV0@@Z 1002f21c     mfc42:MFC42.DLL
 0002:00000220       __imp_?TrimLeft@CString@@QAEXXZ 1002f220     mfc42:MFC42.DLL
 0002:00000224       __imp_?TrimRight@CString@@QAEXXZ 1002f224     mfc42:MFC42.DLL
 0002:00000228       __imp_??1CStringList@@UAE@XZ 1002f228     mfc42:MFC42.DLL
 0002:0000022c       __imp_??0CString@@QAE@XZ   1002f22c     mfc42:MFC42.DLL
 0002:00000230       __imp_?Format@CString@@QAAXPBDZZ 1002f230     mfc42:MFC42.DLL
 0002:00000234       __imp_??1CStringArray@@UAE@XZ 1002f234     mfc42:MFC42.DLL
 0002:00000238       __imp_??0CStringArray@@QAE@XZ 1002f238     mfc42:MFC42.DLL
 0002:0000023c       __imp_??1CString@@QAE@XZ   1002f23c     mfc42:MFC42.DLL
 0002:00000240       __imp_??0CString@@QAE@PBD@Z 1002f240     mfc42:MFC42.DLL
 0002:00000244       __imp_??0AFX_MODULE_STATE@@QAE@HP6GJPAUHWND__@@IIJ@ZK@Z 1002f244     mfc42:MFC42.DLL
 0002:00000248       __imp_??3CNoTrackObject@@SGXPAX@Z 1002f248     mfc42:MFC42.DLL
 0002:0000024c       __imp_??1AFX_MODULE_STATE@@UAE@XZ 1002f24c     mfc42:MFC42.DLL
 0002:00000250       __imp_?AfxCoreInitModule@@YGXXZ 1002f250     mfc42:MFC42.DLL
 0002:00000254       __imp_?AfxWndProc@@YGJPAUHWND__@@IIJ@Z 1002f254     mfc42:MFC42.DLL
 0002:00000258       __imp_??0AFX_MAINTAIN_STATE2@@QAE@PAVAFX_MODULE_STATE@@@Z 1002f258     mfc42:MFC42.DLL
 0002:0000025c       __imp_?AfxTermThread@@YGXPAUHINSTANCE__@@@Z 1002f25c     mfc42:MFC42.DLL
 0002:00000260       __imp_?AfxTermExtensionModule@@YGXAAUAFX_EXTENSION_MODULE@@H@Z 1002f260     mfc42:MFC42.DLL
 0002:00000264       __imp_?AfxUnlockTempMaps@@YGHH@Z 1002f264     mfc42:MFC42.DLL
 0002:00000268       __imp_?AfxLockTempMaps@@YGXXZ 1002f268     mfc42:MFC42.DLL
 0002:0000026c       __imp_?AfxSetModuleState@@YGPAVAFX_MODULE_STATE@@PAV1@@Z 1002f26c     mfc42:MFC42.DLL
 0002:00000270       __imp_??0CDynLinkLibrary@@QAE@AAUAFX_EXTENSION_MODULE@@H@Z 1002f270     mfc42:MFC42.DLL
 0002:00000274       __imp_?AfxInitExtensionModule@@YGHAAUAFX_EXTENSION_MODULE@@PAUHINSTANCE__@@@Z 1002f274     mfc42:MFC42.DLL
 0002:00000278       __imp_?AfxWinTerm@@YGXXZ   1002f278     mfc42:MFC42.DLL
 0002:0000027c       __imp_?AfxGetModuleState@@YGPAVAFX_MODULE_STATE@@XZ 1002f27c     mfc42:MFC42.DLL
 0002:00000280       __imp_?AfxWinInit@@YGHPAUHINSTANCE__@@0PADH@Z 1002f280     mfc42:MFC42.DLL
 0002:00000284       __imp_?AfxGetThreadState@@YGPAV_AFX_THREAD_STATE@@XZ 1002f284     mfc42:MFC42.DLL
 0002:00000288       __imp_??YCString@@QAEABV0@PBD@Z 1002f288     mfc42:MFC42.DLL
 0002:0000028c       \177MFC42_NULL_THUNK_DATA  1002f28c     mfc42:MFC42.DLL
 0002:00000290       __imp_??0Init@ios_base@std@@QAE@XZ 1002f290     msvcprt:MSVCP60.dll
 0002:00000294       __imp_??1_Winit@std@@QAE@XZ 1002f294     msvcprt:MSVCP60.dll
 0002:00000298       __imp_??0_Winit@std@@QAE@XZ 1002f298     msvcprt:MSVCP60.dll
 0002:0000029c       __imp_??1Init@ios_base@std@@QAE@XZ 1002f29c     msvcprt:MSVCP60.dll
 0002:000002a0       \177MSVCP60_NULL_THUNK_DATA 1002f2a0     msvcprt:MSVCP60.dll
 0002:000002a4       __imp__strncpy             1002f2a4     MSVCRT:MSVCRT.dll
 0002:000002a8       __imp___purecall           1002f2a8     MSVCRT:MSVCRT.dll
 0002:000002ac       __imp___stricmp            1002f2ac     MSVCRT:MSVCRT.dll
 0002:000002b0       __imp__rand                1002f2b0     MSVCRT:MSVCRT.dll
 0002:000002b4       __imp__srand               1002f2b4     MSVCRT:MSVCRT.dll
 0002:000002b8       __imp___mbscmp             1002f2b8     MSVCRT:MSVCRT.dll
 0002:000002bc       __imp__atoi                1002f2bc     MSVCRT:MSVCRT.dll
 0002:000002c0       __imp____CxxFrameHandler   1002f2c0     MSVCRT:MSVCRT.dll
 0002:000002c4       __imp_??3@YAXPAX@Z         1002f2c4     MSVCRT:MSVCRT.dll
 0002:000002c8       __imp__strspn              1002f2c8     MSVCRT:MSVCRT.dll
 0002:000002cc       __imp___CxxThrowException@8 1002f2cc     MSVCRT:MSVCRT.dll
 0002:000002d0       __imp__strcspn             1002f2d0     MSVCRT:MSVCRT.dll
 0002:000002d4       __imp_??2@YAPAXI@Z         1002f2d4     MSVCRT:MSVCRT.dll
 0002:000002d8       __imp__strstr              1002f2d8     MSVCRT:MSVCRT.dll
 0002:000002dc       __imp___mbsnbcpy           1002f2dc     MSVCRT:MSVCRT.dll
 0002:000002e0       __imp__time                1002f2e0     MSVCRT:MSVCRT.dll
 0002:000002e4       __imp__strncat             1002f2e4     MSVCRT:MSVCRT.dll
 0002:000002e8       __imp___snprintf           1002f2e8     MSVCRT:MSVCRT.dll
 0002:000002ec       __imp___ismbcspace         1002f2ec     MSVCRT:MSVCRT.dll
 0002:000002f0       __imp___wtoi               1002f2f0     MSVCRT:MSVCRT.dll
 0002:000002f4       __imp__memcpy              1002f2f4     MSVCRT:MSVCRT.dll
 0002:000002f8       __imp___except_handler3    1002f2f8     MSVCRT:MSVCRT.dll
 0002:000002fc       __imp_?terminate@@YAXXZ    1002f2fc     MSVCRT:MSVCRT.dll
 0002:00000300       __imp_??1type_info@@UAE@XZ 1002f300     MSVCRT:MSVCRT.dll
 0002:00000304       __imp____dllonexit         1002f304     MSVCRT:MSVCRT.dll
 0002:00000308       __imp___onexit             1002f308     MSVCRT:MSVCRT.dll
 0002:0000030c       __imp___ismbcdigit         1002f30c     MSVCRT:MSVCRT.dll
 0002:00000310       \177MSVCRT_NULL_THUNK_DATA 1002f310     MSVCRT:MSVCRT.dll
 0002:00000314       __imp__SysFreeString@4     1002f314     oleaut32:OLEAUT32.dll
 0002:00000318       __imp__SysAllocString@4    1002f318     oleaut32:OLEAUT32.dll
 0002:0000031c       \177OLEAUT32_NULL_THUNK_DATA 1002f31c     oleaut32:OLEAUT32.dll
 0002:00000320       __imp__UuidCreate@4        1002f320     Rpcrt4:RPCRT4.dll
 0002:00000324       __imp__UuidToStringA@8     1002f324     Rpcrt4:RPCRT4.dll
 0002:00000328       __imp__RpcStringFreeA@4    1002f328     Rpcrt4:RPCRT4.dll
 0002:0000032c       \177RPCRT4_NULL_THUNK_DATA 1002f32c     Rpcrt4:RPCRT4.dll
 0002:00000330       __imp__DefWindowProcA@16   1002f330     user32:USER32.dll
 0002:00000334       __imp__ShowWindow@8        1002f334     user32:USER32.dll
 0002:00000338       __imp__InvalidateRect@12   1002f338     user32:USER32.dll
 0002:0000033c       __imp__MoveWindow@24       1002f33c     user32:USER32.dll
 0002:00000340       __imp__CreateDialogParamA@20 1002f340     user32:USER32.dll
 0002:00000344       __imp__DispatchMessageA@4  1002f344     user32:USER32.dll
 0002:00000348       __imp__GetQueueStatus@4    1002f348     user32:USER32.dll
 0002:0000034c       __imp__RegisterWindowMessageA@4 1002f34c     user32:USER32.dll
 0002:00000350       __imp__PostThreadMessageA@16 1002f350     user32:USER32.dll
 0002:00000354       __imp__GetSysColor@4       1002f354     user32:USER32.dll
 0002:00000358       __imp__wsprintfA           1002f358     user32:USER32.dll
 0002:0000035c       __imp__MsgWaitForMultipleObjects@20 1002f35c     user32:USER32.dll
 0002:00000360       __imp__PeekMessageA@20     1002f360     user32:USER32.dll
 0002:00000364       __imp__wvsprintfA@12       1002f364     user32:USER32.dll
 0002:00000368       __imp__MessageBoxA@16      1002f368     user32:USER32.dll
 0002:0000036c       __imp__LoadStringA@16      1002f36c     user32:USER32.dll
 0002:00000370       __imp__SetDlgItemTextA@12  1002f370     user32:USER32.dll
 0002:00000374       __imp__SetWindowTextA@8    1002f374     user32:USER32.dll
 0002:00000378       __imp__CheckDlgButton@12   1002f378     user32:USER32.dll
 0002:0000037c       __imp__GetWindowLongA@8    1002f37c     user32:USER32.dll
 0002:00000380       __imp__GetParent@4         1002f380     user32:USER32.dll
 0002:00000384       __imp__CallWindowProcA@20  1002f384     user32:USER32.dll
 0002:00000388       __imp__DestroyWindow@4     1002f388     user32:USER32.dll
 0002:0000038c       __imp__DrawTextA@20        1002f38c     user32:USER32.dll
 0002:00000390       __imp__GetWindowTextA@12   1002f390     user32:USER32.dll
 0002:00000394       __imp__FillRect@12         1002f394     user32:USER32.dll
 0002:00000398       __imp__GetDlgCtrlID@4      1002f398     user32:USER32.dll
 0002:0000039c       __imp__SendMessageA@16     1002f39c     user32:USER32.dll
 0002:000003a0       __imp__SetDlgItemInt@16    1002f3a0     user32:USER32.dll
 0002:000003a4       __imp__GetDlgItem@8        1002f3a4     user32:USER32.dll
 0002:000003a8       __imp__LoadBitmapA@8       1002f3a8     user32:USER32.dll
 0002:000003ac       __imp__EnableWindow@8      1002f3ac     user32:USER32.dll
 0002:000003b0       __imp__SetWindowLongA@12   1002f3b0     user32:USER32.dll
 0002:000003b4       __imp__GetClientRect@8     1002f3b4     user32:USER32.dll
 0002:000003b8       __imp__CreateWindowExA@48  1002f3b8     user32:USER32.dll
 0002:000003bc       __imp__GetDesktopWindow@0  1002f3bc     user32:USER32.dll
 0002:000003c0       __imp__GetWindowRect@8     1002f3c0     user32:USER32.dll
 0002:000003c4       __imp__IsDlgButtonChecked@8 1002f3c4     user32:USER32.dll
 0002:000003c8       __imp__LoadStringW@16      1002f3c8     user32:USER32.dll
 0002:000003cc       \177USER32_NULL_THUNK_DATA 1002f3cc     user32:USER32.dll
 0002:000003d0       __imp__GetFileVersionInfoA@16 1002f3d0     version:VERSION.dll
 0002:000003d4       __imp__VerQueryValueA@16   1002f3d4     version:VERSION.dll
 0002:000003d8       __imp__GetFileVersionInfoSizeA@8 1002f3d8     version:VERSION.dll
 0002:000003dc       \177VERSION_NULL_THUNK_DATA 1002f3dc     version:VERSION.dll
 0002:000003e0       __imp__InternetOpenA@20    1002f3e0     Wininet:WININET.dll
 0002:000003e4       __imp__InternetConnectA@32 1002f3e4     Wininet:WININET.dll
 0002:000003e8       __imp__HttpOpenRequestA@32 1002f3e8     Wininet:WININET.dll
 0002:000003ec       __imp__HttpAddRequestHeadersA@16 1002f3ec     Wininet:WININET.dll
 0002:000003f0       __imp__InternetCloseHandle@4 1002f3f0     Wininet:WININET.dll
 0002:000003f4       __imp__InternetReadFile@16 1002f3f4     Wininet:WININET.dll
 0002:000003f8       __imp__HttpQueryInfoA@20   1002f3f8     Wininet:WININET.dll
 0002:000003fc       __imp__HttpSendRequestA@20 1002f3fc     Wininet:WININET.dll
 0002:00000400       __imp__InternetSetOptionA@16 1002f400     Wininet:WININET.dll
 0002:00000404       \177WININET_NULL_THUNK_DATA 1002f404     Wininet:WININET.dll
 0002:00000408       __imp__timeKillEvent@4     1002f408     winmm:WINMM.dll
 0002:0000040c       __imp__timeGetTime@0       1002f40c     winmm:WINMM.dll
 0002:00000410       __imp__timeSetEvent@20     1002f410     winmm:WINMM.dll
 0002:00000414       \177WINMM_NULL_THUNK_DATA  1002f414     winmm:WINMM.dll
 0002:00000418       __imp__WSACloseEvent@4     1002f418     ws2_32:WS2_32.dll
 0002:0000041c       __imp__WSAWaitForMultipleEvents@20 1002f41c     ws2_32:WS2_32.dll
 0002:00000420       __imp__WSAEnumNetworkEvents@12 1002f420     ws2_32:WS2_32.dll
 0002:00000424       __imp__WSAEventSelect@12   1002f424     ws2_32:WS2_32.dll
 0002:00000428       __imp__WSAResetEvent@4     1002f428     ws2_32:WS2_32.dll
 0002:0000042c       __imp__WSACreateEvent@0    1002f42c     ws2_32:WS2_32.dll
 0002:00000430       __imp__WSARecv@28          1002f430     ws2_32:WS2_32.dll
 0002:00000434       __imp__WSASocketA@24       1002f434     ws2_32:WS2_32.dll
 0002:00000438       __imp__WSAConnect@28       1002f438     ws2_32:WS2_32.dll
 0002:0000043c       \177WS2_32_NULL_THUNK_DATA 1002f43c     ws2_32:WS2_32.dll
 0002:00000440       __imp__gethostbyname@4     1002f440     wsock32:WSOCK32.dll
 0002:00000444       __imp__inet_addr@4         1002f444     wsock32:WSOCK32.dll
 0002:00000448       __imp__ioctlsocket@12      1002f448     wsock32:WSOCK32.dll
 0002:0000044c       __imp__socket@12           1002f44c     wsock32:WSOCK32.dll
 0002:00000450       __imp__ntohl@4             1002f450     wsock32:WSOCK32.dll
 0002:00000454       __imp__ntohs@4             1002f454     wsock32:WSOCK32.dll
 0002:00000458       __imp__htonl@4             1002f458     wsock32:WSOCK32.dll
 0002:0000045c       __imp__htons@4             1002f45c     wsock32:WSOCK32.dll
 0002:00000460       __imp__connect@12          1002f460     wsock32:WSOCK32.dll
 0002:00000464       __imp__WSAGetLastError@0   1002f464     wsock32:WSOCK32.dll
 0002:00000468       __imp__select@20           1002f468     wsock32:WSOCK32.dll
 0002:0000046c       __imp____WSAFDIsSet@8      1002f46c     wsock32:WSOCK32.dll
 0002:00000470       __imp__send@16             1002f470     wsock32:WSOCK32.dll
 0002:00000474       __imp__recvfrom@24         1002f474     wsock32:WSOCK32.dll
 0002:00000478       __imp__closesocket@4       1002f478     wsock32:WSOCK32.dll
 0002:0000047c       __imp__WSAStartup@8        1002f47c     wsock32:WSOCK32.dll
 0002:00000480       __imp__setsockopt@20       1002f480     wsock32:WSOCK32.dll
 0002:00000484       \177WSOCK32_NULL_THUNK_DATA 1002f484     wsock32:WSOCK32.dll
 0002:00000488       __imp__StringFromGUID2@12  1002f488     ole32:ole32.dll
 0002:0000048c       __imp__CoInitialize@4      1002f48c     ole32:ole32.dll
 0002:00000490       __imp__CoFreeUnusedLibraries@0 1002f490     ole32:ole32.dll
 0002:00000494       __imp__CoUninitialize@0    1002f494     ole32:ole32.dll
 0002:00000498       __imp__CoTaskMemFree@4     1002f498     ole32:ole32.dll
 0002:0000049c       __imp__CoCreateInstance@20 1002f49c     ole32:ole32.dll
 0002:000004a0       __imp__CoTaskMemAlloc@4    1002f4a0     ole32:ole32.dll
 0002:000004a4       \177ole32_NULL_THUNK_DATA  1002f4a4     ole32:ole32.dll
 0002:00000634       ??_7ComError@@6B@          1002f634     ComError.obj
 0002:00000638       ??_7CConfigManager@@6B@    1002f638     ConfigManager.obj
 0002:0000063c       ??_7?$CArray@UDevInfo@CConfigManager@@AAU12@@@6B@ 1002f63c     ConfigManager.obj
 0002:00000650       ??_7CObject@@6B@           1002f650     ConfigManager.obj
 0002:00000664       ??_7CEventString@@6B@      1002f664     EventString.obj
 0002:00000674       ??_7CICSStreamFilter@@6BIAMOpenProgress@@@ 1002f674     fICSStream.obj
 0002:00000688       ??_7CICSStreamFilter@@6BIRTSPThreadCallback@@@ 1002f688     fICSStream.obj
 0002:000006c4       ??_7CICSStreamFilter@@6BIICSStreamEx3@@@ 1002f6c4     fICSStream.obj
 0002:000006d4       ??_7CICSStreamFilter@@6BIICSStreamEx2@@@ 1002f6d4     fICSStream.obj
 0002:00000708       ??_7CICSStreamFilter@@6BIICSPTZControl@@@ 1002f708     fICSStream.obj
 0002:000007ec       ??_7CICSStreamFilter@@6BIICSStreamEx@@@ 1002f7ec     fICSStream.obj
 0002:00000818       ??_7CICSStreamFilter@@6BIICSStream@@@ 1002f818     fICSStream.obj
 0002:0000086c       ??_7CICSStreamFilter@@6BISpecifyPropertyPages@@@ 1002f86c     fICSStream.obj
 0002:0000087c       ??_7CICSStreamFilter@@6BIAMovieSetup@@@ 1002f87c     fICSStream.obj
 0002:00000890       ??_7CICSStreamFilter@@6BIBaseFilter@@@ 1002f890     fICSStream.obj
 0002:000008cc       ??_7CICSStreamFilter@@6BCUnknown@@@ 1002f8cc     fICSStream.obj
 0002:000008f4       ??_7IRTSPThreadCallback@@6B@ 1002f8f4     fICSStream.obj
 0002:00000930       ??_7CICSStreamVideoOut@@6BIQualityControl@@@ 1002f930     fICSStream_op.obj
 0002:00000948       ??_7CICSStreamVideoOut@@6BIPin@@@ 1002f948     fICSStream_op.obj
 0002:00000990       ??_7CICSStreamVideoOut@@6BCUnknown@@@ 1002f990     fICSStream_op.obj
 0002:000009ec       ??_7CICSStreamVideoOut@@6B@ 1002f9ec     fICSStream_op.obj
 0002:00000a0c       ??_7CMediaBuffer@@6B@      1002fa0c     fICSStream_op.obj
 0002:00000a24       ??_7CICSStreamAudioOut@@6BIQualityControl@@@ 1002fa24     fICSStream_op.obj
 0002:00000a38       ??_7CICSStreamAudioOut@@6BIPin@@@ 1002fa38     fICSStream_op.obj
 0002:00000a80       ??_7CICSStreamAudioOut@@6BCUnknown@@@ 1002fa80     fICSStream_op.obj
 0002:00000adc       ??_7CICSStreamAudioOut@@6B@ 1002fadc     fICSStream_op.obj
 0002:00000afc       ?HTTP_TIMEOUT@HttpAgent@@2IB 1002fafc     HttpAgent.obj
 0002:00000b00       ??_7HttpAgent@@6B@         1002fb00     HttpAgent.obj
 0002:00000b04       ??_7RTSPError@@6B@         1002fb04     HttpAgent.obj
 0002:00000b0c       ??_7HTTPMessage@@6B@       1002fb0c     HTTPMessage.obj
 0002:00000b10       ??_7HTTPError@@6B@         1002fb10     HTTPMessage.obj
 0002:00000b14       ??_7HTTPResponse@@6B@      1002fb14     HTTPResponse.obj
 0002:00000b18       ??_7CICSPtzControlPage@@6BCUnknown@@@ 1002fb18     ICSPtzControlPage.obj
 0002:00000b28       ??_7CICSPtzControlPage@@6BIPropertyPage@@@ 1002fb28     ICSPtzControlPage.obj
 0002:00000b78       ??_7?$CMap@IIUBTN_BMP@CICSPtzControlPage@@U12@@@6B@ 1002fb78     ICSPtzControlPage.obj
 0002:00000bcc       _CLSID_ICTMPEG4VideoDecoder 1002fbcc     ICSStream.obj
 0002:00000bdc       _CLSID_DecoderPropertyPage 1002fbdc     ICSStream.obj
 0002:00000bec       _CLSID_ICTMPEG4DecoderFilter 1002fbec     ICSStream.obj
 0002:00000bfc       _CLSID_ICSPtzControlPage   1002fbfc     ICSStream.obj
 0002:00000c0c       _CLSID_ICSStreamPropertyPage 1002fc0c     ICSStream.obj
 0002:00000c1c       _IID_IICSStreamEx3         1002fc1c     ICSStream.obj
 0002:00000c2c       _IID_IICSStreamEx2         1002fc2c     ICSStream.obj
 0002:00000c3c       _IID_IICSPTZControl        1002fc3c     ICSStream.obj
 0002:00000c4c       _IID_IEventString          1002fc4c     ICSStream.obj
 0002:00000c5c       _IID_IICSStreamEx          1002fc5c     ICSStream.obj
 0002:00000c6c       _IID_IICSNotifyCallback    1002fc6c     ICSStream.obj
 0002:00000c7c       _IID_IICSStream            1002fc7c     ICSStream.obj
 0002:00000c8c       _CLSID_ICSStream           1002fc8c     ICSStream.obj
 0002:00000c9c       ??_7CICSStreamPropertyPage@@6BCUnknown@@@ 1002fc9c     ICSStreamPropertyPage.obj
 0002:00000cb0       ??_7CICSStreamPropertyPage@@6BIPropertyPage@@@ 1002fcb0     ICSStreamPropertyPage.obj
 0002:00001230       ??_7MyByteArray@@6B@       10030230     MyByteArray.obj
 0002:00001244       ??_7CPTZController@@6B@    10030244     PTZController.obj
 0002:00001248       ??_7?$CList@PAXPAX@@6B@    10030248     Queue.obj
 0002:0000125c       ??_7RTPClient@@6B@         1003025c     RTPClient.obj
 0002:00001260       ??_7RTPThread@@6B@         10030260     RTPThread.obj
 0002:00001264       ??_7?$CList@II@@6B@        10030264     RTPThread.obj
 0002:000012a4       ??_7?$CMap@VCString@@PBDW4State@RTSPClient@@W423@@@6B@ 100302a4     RTSPClient.obj
 0002:000012bc       ??_7RTSPMessage@@6B@       100302bc     RTSPMessage.obj
 0002:000012e8       ??_7RTSPRequest@@6B@       100302e8     RTSPRequest.obj
 0002:000012f0       ??_7RTSPResponse@@6B@      100302f0     RTSPResponse.obj
 0002:000012f4       ??_7RTSPThread@@6B@        100302f4     RTSPThread.obj
 0002:000012f8       ??_7ConnectParams@RTSPThread@@6B@ 100302f8     RTSPThread.obj
 0002:000012fc       ??_7Params@RTSPThread@@6B@ 100302fc     RTSPThread.obj
 0002:00001300       ??_7AuthParams@RTSPThread@@6B@ 10030300     RTSPThread.obj
 0002:00001304       ??_7SetupParams@RTSPThread@@6B@ 10030304     RTSPThread.obj
 0002:00001308       ??_7Encrypted@@6B@         10030308     RTSPThread.obj
 0002:0000130c       ??_7StopParams@RTSPThread@@6B@ 1003030c     RTSPThread.obj
 0002:00001310       ??_7DataParams@RTSPThread@@6B@ 10030310     RTSPThread.obj
 0002:00001314       ??_7SDP@@6B@               10030314     SDP.obj
 0002:00001318       _IID_IAMFilterGraphCallback 10030318     StdAfx.obj
 0002:00001328       _IID_IDocHostUIHandlerDispatch 10030328     StdAfx.obj
 0002:00001338       _IID_IInternalConnection   10030338     StdAfx.obj
 0002:00001348       _IID_IAxWinAmbientDispatch 10030348     StdAfx.obj
 0002:00001358       _IID_IAxWinHostWindow      10030358     StdAfx.obj
 0002:00001368       _IID_IRegistrar            10030368     StdAfx.obj
 0002:00001378       _CLSID_Registrar           10030378     StdAfx.obj
 0002:00001388       _LIBID_ATLLib              10030388     StdAfx.obj
 0002:00001398       ??_7UnwrapThread@@6B@      10030398     UnwrapThread.obj
 0002:0000139c       ??_7?$CList@KK@@6B@        1003039c     UnwrapThread.obj
 0002:000013b0       __real@0000000000000000    100303b0     UnwrapThread.obj
 0002:000013b8       __real@00000000            100303b8     UnwrapThread.obj
 0002:000013bc       __real@447a0000            100303bc     UnwrapThread.obj
 0002:00001440       ??_7CVideoMemoryPool@@6B@  10030440     VideoMemoryPool.obj
 0002:00001444       ??_7CVideoQueue@@6B@       10030444     VideoQueue.obj
 0002:00001448       ??_7CClassFactory@@6B@     10030448     strmbase:dllentry.obj
 0002:0000145c       ??_7CSource@@6BIAMovieSetup@@@ 1003045c     strmbase:source.obj
 0002:00001470       ??_7CSource@@6BIBaseFilter@@@ 10030470     strmbase:source.obj
 0002:000014ac       ??_7CSource@@6BCUnknown@@@ 100304ac     strmbase:source.obj
 0002:000014d4       ??_7CSourceStream@@6BIQualityControl@@@ 100304d4     strmbase:source.obj
 0002:000014e8       ??_7CSourceStream@@6BIPin@@@ 100304e8     strmbase:source.obj
 0002:00001530       ??_7CSourceStream@@6BCUnknown@@@ 10030530     strmbase:source.obj
 0002:0000158c       ??_7CSourceStream@@6B@     1003058c     strmbase:source.obj
 0002:000015ac       ??_7CEnumPins@@6B@         100305ac     strmbase:amfilter.obj
 0002:000015cc       ??_7CEnumMediaTypes@@6B@   100305cc     strmbase:amfilter.obj
 0002:000015f0       ??_7CMediaSample@@6B@      100305f0     strmbase:amfilter.obj
 0002:00001648       ??_7CDynamicOutputPin@@6B@ 10030648     strmbase:amfilter.obj
 0002:00001658       ??_7CDynamicOutputPin@@6BIQualityControl@@@ 10030658     strmbase:amfilter.obj
 0002:00001670       ??_7CDynamicOutputPin@@6BIPin@@@ 10030670     strmbase:amfilter.obj
 0002:000016b8       ??_7CDynamicOutputPin@@6BCUnknown@@@ 100306b8     strmbase:amfilter.obj
 0002:00001720       ??_7CMemAllocator@@6BIMemAllocatorCallbackTemp@@@ 10030720     strmbase:amfilter.obj
 0002:0000174c       ??_7CMemAllocator@@6BCUnknown@@@ 1003074c     strmbase:amfilter.obj
 0002:00001774       _IID_IVMRImageCompositor9  10030774     strmbase:strmiids.obj
 0002:00001784       _IID_IVMRDeinterlaceControl9 10030784     strmbase:strmiids.obj
 0002:00001794       _IID_IVMRMonitorConfig9    10030794     strmbase:strmiids.obj
 0002:000017a4       _IID_IVMRAspectRatioControl9 100307a4     strmbase:strmiids.obj
 0002:000017b4       _IID_IVMRFilterConfig9     100307b4     strmbase:strmiids.obj
 0002:000017c4       _IID_IVMRVideoStreamControl9 100307c4     strmbase:strmiids.obj
 0002:000017d4       _IID_IVMRImagePresenterConfig9 100307d4     strmbase:strmiids.obj
 0002:000017e4       _IID_IVMRSurface9          100307e4     strmbase:strmiids.obj
 0002:000017f4       _IID_IVMRMixerBitmap9      100307f4     strmbase:strmiids.obj
 0002:00001804       _IID_IVMRMixerControl9     10030804     strmbase:strmiids.obj
 0002:00001814       _IID_IVMRWindowlessControl9 10030814     strmbase:strmiids.obj
 0002:00001824       _IID_IVMRSurfaceAllocatorNotify9 10030824     strmbase:strmiids.obj
 0002:00001834       _IID_IVMRSurfaceAllocator9 10030834     strmbase:strmiids.obj
 0002:00001844       _IID_IVMRImagePresenter9   10030844     strmbase:strmiids.obj
 0002:00001854       _IID_IMixerOCX             10030854     strmbase:strmiids.obj
 0002:00001864       _IID_IMixerOCXNotify       10030864     strmbase:strmiids.obj
 0002:00001874       _CLSID_XDSCodec            10030874     strmbase:strmiids.obj
 0002:00001884       _DIID_IXDSCodecEvents      10030884     strmbase:strmiids.obj
 0002:00001894       _IID_IXDSCodec             10030894     strmbase:strmiids.obj
 0002:000018a4       _CLSID_DTFilter            100308a4     strmbase:strmiids.obj
 0002:000018b4       _DIID_IDTFilterEvents      100308b4     strmbase:strmiids.obj
 0002:000018c4       _IID_IDTFilter             100308c4     strmbase:strmiids.obj
 0002:000018d4       _CLSID_ETFilter            100308d4     strmbase:strmiids.obj
 0002:000018e4       _DIID_IETFilterEvents      100308e4     strmbase:strmiids.obj
 0002:000018f4       _IID_IETFilter             100308f4     strmbase:strmiids.obj
 0002:00001904       _LIBID_EncDec              10030904     strmbase:strmiids.obj
 0002:00001914       _IID_IXDSCodecConfig       10030914     strmbase:strmiids.obj
 0002:00001924       _IID_IDTFilterConfig       10030924     strmbase:strmiids.obj
 0002:00001934       _IID_IETFilterConfig       10030934     strmbase:strmiids.obj
 0002:00001944       _CLSID_EvalRat             10030944     strmbase:strmiids.obj
 0002:00001954       _CLSID_XDSToRat            10030954     strmbase:strmiids.obj
 0002:00001964       _LIBID_TVRATINGSLib        10030964     strmbase:strmiids.obj
 0002:00001974       _IID_IEvalRat              10030974     strmbase:strmiids.obj
 0002:00001984       _IID_IXDSToRat             10030984     strmbase:strmiids.obj
 0002:00001994       _IID_IAMVideoAccelerator   10030994     strmbase:strmiids.obj
 0002:000019a4       _IID_IAMVideoAcceleratorNotify 100309a4     strmbase:strmiids.obj
 0002:000019b4       _IID_IStreamBufferMediaSeeking 100309b4     strmbase:strmiids.obj
 0002:000019c4       _IID_IStreamBufferConfigure 100309c4     strmbase:strmiids.obj
 0002:000019d4       _IID_IEnumStreamBufferRecordingAttrib 100309d4     strmbase:strmiids.obj
 0002:000019e4       _IID_IStreamBufferRecordingAttribute 100309e4     strmbase:strmiids.obj
 0002:000019f4       _IID_IStreamBufferRecComp  100309f4     strmbase:strmiids.obj
 0002:00001a04       _IID_IStreamBufferRecordControl 10030a04     strmbase:strmiids.obj
 0002:00001a14       _IID_IStreamBufferSource   10030a14     strmbase:strmiids.obj
 0002:00001a24       _IID_IStreamBufferSink     10030a24     strmbase:strmiids.obj
 0002:00001a34       _IID_IStreamBufferInitialize 10030a34     strmbase:strmiids.obj
 0002:00001a44       _CLSID_TIFLoad             10030a44     strmbase:strmiids.obj
 0002:00001a54       _LIBID_PSISLOADLib         10030a54     strmbase:strmiids.obj
 0002:00001a64       _IID_IGuideDataLoader      10030a64     strmbase:strmiids.obj
 0002:00001a74       _IID_IGuideData            10030a74     strmbase:strmiids.obj
 0002:00001a84       _IID_IEnumTuneRequests     10030a84     strmbase:strmiids.obj
 0002:00001a94       _IID_IEnumGuideDataProperties 10030a94     strmbase:strmiids.obj
 0002:00001aa4       _IID_IGuideDataProperty    10030aa4     strmbase:strmiids.obj
 0002:00001ab4       _IID_IGuideDataEvent       10030ab4     strmbase:strmiids.obj
 0002:00001ac4       _IID_ITuneRequestInfo      10030ac4     strmbase:strmiids.obj
 0002:00001ad4       _IID_IMPEG2_TIF_CONTROL    10030ad4     strmbase:strmiids.obj
 0002:00001ae4       _IID_IBDA_TIF_REGISTRATION 10030ae4     strmbase:strmiids.obj
 0002:00001af4       _IID_IFrequencyMap         10030af4     strmbase:strmiids.obj
 0002:00001b04       _IID_IMPEG2PIDMap          10030b04     strmbase:strmiids.obj
 0002:00001b14       _IID_IEnumPIDMap           10030b14     strmbase:strmiids.obj
 0002:00001b24       _IID_IBDA_IPSinkInfo       10030b24     strmbase:strmiids.obj
 0002:00001b34       _IID_IBDA_IPSinkControl    10030b34     strmbase:strmiids.obj
 0002:00001b44       _IID_IBDA_DigitalDemodulator 10030b44     strmbase:strmiids.obj
 0002:00001b54       _IID_IBDA_AutoDemodulate   10030b54     strmbase:strmiids.obj
 0002:00001b64       _IID_IBDA_LNBInfo          10030b64     strmbase:strmiids.obj
 0002:00001b74       _IID_IBDA_FrequencyFilter  10030b74     strmbase:strmiids.obj
 0002:00001b84       _IID_IBDA_NullTransform    10030b84     strmbase:strmiids.obj
 0002:00001b94       _IID_IBDA_VoidTransform    10030b94     strmbase:strmiids.obj
 0002:00001ba4       _IID_IBDA_Topology         10030ba4     strmbase:strmiids.obj
 0002:00001bb4       _IID_IBDA_SignalStatistics 10030bb4     strmbase:strmiids.obj
 0002:00001bc4       _IID_IBDA_SignalProperties 10030bc4     strmbase:strmiids.obj
 0002:00001bd4       _IID_IBDA_PinControl       10030bd4     strmbase:strmiids.obj
 0002:00001be4       _IID_IBDA_DeviceControl    10030be4     strmbase:strmiids.obj
 0002:00001bf4       _IID_IBDA_IPV6Filter       10030bf4     strmbase:strmiids.obj
 0002:00001c04       _IID_IBDA_IPV4Filter       10030c04     strmbase:strmiids.obj
 0002:00001c14       _IID_IBDA_EthernetFilter   10030c14     strmbase:strmiids.obj
 0002:00001c24       _IID_IBDA_NetworkProvider  10030c24     strmbase:strmiids.obj
 0002:00001c34       _CLSID_MSVidOutput         10030c34     strmbase:strmiids.obj
 0002:00001c44       _CLSID_MSVidFeature        10030c44     strmbase:strmiids.obj
 0002:00001c54       _CLSID_MSVidVideoPlaybackDevice 10030c54     strmbase:strmiids.obj
 0002:00001c64       _CLSID_MSVidVideoInputDevice 10030c64     strmbase:strmiids.obj
 0002:00001c74       _CLSID_MSVidInputDevice    10030c74     strmbase:strmiids.obj
 0002:00001c84       _CLSID_MSVidDevice         10030c84     strmbase:strmiids.obj
 0002:00001c94       _CLSID_MSVidRect           10030c94     strmbase:strmiids.obj
 0002:00001ca4       _CLSID_MSVidStreamBufferRecordingControl 10030ca4     strmbase:strmiids.obj
 0002:00001cb4       _CLSID_MSEventBinder       10030cb4     strmbase:strmiids.obj
 0002:00001cc4       _CLSID_MSVidSBESourceToCC  10030cc4     strmbase:strmiids.obj
 0002:00001cd4       _CLSID_MSVidAnalogCaptureToXDS 10030cd4     strmbase:strmiids.obj
 0002:00001ce4       _CLSID_MSVidStreamBufferSourceToVideoRenderer 10030ce4     strmbase:strmiids.obj
 0002:00001cf4       _CLSID_MSVidAnalogTVToEncoder 10030cf4     strmbase:strmiids.obj
 0002:00001d04       _CLSID_MSVidFilePlaybackToAudioRenderer 10030d04     strmbase:strmiids.obj
 0002:00001d14       _CLSID_MSVidFilePlaybackToVideoRenderer 10030d14     strmbase:strmiids.obj
 0002:00001d24       _CLSID_MSVidEncoderToStreamBufferSink 10030d24     strmbase:strmiids.obj
 0002:00001d34       _CLSID_MSVidDataServicesToXDS 10030d34     strmbase:strmiids.obj
 0002:00001d44       _CLSID_MSVidDataServicesToStreamBufferSink 10030d44     strmbase:strmiids.obj
 0002:00001d54       _CLSID_MSVidDigitalCaptureToStreamBufferSink 10030d54     strmbase:strmiids.obj
 0002:00001d64       _CLSID_MSVidAnalogCaptureToStreamBufferSink 10030d64     strmbase:strmiids.obj
 0002:00001d74       _CLSID_MSVidMPEG2DecoderToClosedCaptioning 10030d74     strmbase:strmiids.obj
 0002:00001d84       _CLSID_MSVidWebDVDToAudioRenderer 10030d84     strmbase:strmiids.obj
 0002:00001d94       _CLSID_MSVidWebDVDToVideoRenderer 10030d94     strmbase:strmiids.obj
 0002:00001da4       _CLSID_MSVidAnalogCaptureToDataServices 10030da4     strmbase:strmiids.obj
 0002:00001db4       _CLSID_MSVidAnalogCaptureToOverlayMixer 10030db4     strmbase:strmiids.obj
 0002:00001dc4       _CLSID_MSVidGenericComposite 10030dc4     strmbase:strmiids.obj
 0002:00001dd4       _CLSID_MSVidFeatures       10030dd4     strmbase:strmiids.obj
 0002:00001de4       _CLSID_MSVidAudioRendererDevices 10030de4     strmbase:strmiids.obj
 0002:00001df4       _CLSID_MSVidVideoRendererDevices 10030df4     strmbase:strmiids.obj
 0002:00001e04       _CLSID_MSVidOutputDevices  10030e04     strmbase:strmiids.obj
 0002:00001e14       _CLSID_MSVidInputDevices   10030e14     strmbase:strmiids.obj
 0002:00001e24       _CLSID_MSVidCtl            10030e24     strmbase:strmiids.obj
 0002:00001e34       _CLSID_MSVidClosedCaptioning 10030e34     strmbase:strmiids.obj
 0002:00001e44       _CLSID_MSVidXDS            10030e44     strmbase:strmiids.obj
 0002:00001e54       _CLSID_MSVidEncoder        10030e54     strmbase:strmiids.obj
 0002:00001e64       _CLSID_MSVidDataServices   10030e64     strmbase:strmiids.obj
 0002:00001e74       _CLSID_MSVidStreamBufferSource 10030e74     strmbase:strmiids.obj
 0002:00001e84       _CLSID_MSVidStreamBufferSink 10030e84     strmbase:strmiids.obj
 0002:00001e94       _CLSID_MSVidAudioRenderer  10030e94     strmbase:strmiids.obj
 0002:00001ea4       _CLSID_MSVidVideoRenderer  10030ea4     strmbase:strmiids.obj
 0002:00001eb4       _CLSID_MSVidWebDVDAdm      10030eb4     strmbase:strmiids.obj
 0002:00001ec4       _CLSID_MSVidWebDVD         10030ec4     strmbase:strmiids.obj
 0002:00001ed4       _CLSID_MSVidFilePlaybackDevice 10030ed4     strmbase:strmiids.obj
 0002:00001ee4       _CLSID_MSVidBDATunerDevice 10030ee4     strmbase:strmiids.obj
 0002:00001ef4       _CLSID_MSVidAnalogTunerDevice 10030ef4     strmbase:strmiids.obj
 0002:00001f04       _DIID__IMSVidCtlEvents     10030f04     strmbase:strmiids.obj
 0002:00001f14       _LIBID_MSVidCtlLib         10030f14     strmbase:strmiids.obj
 0002:00001f24       _IID_IMSEventBinder        10030f24     strmbase:strmiids.obj
 0002:00001f34       _IID_IMSVidCtl             10030f34     strmbase:strmiids.obj
 0002:00001f44       _IID_IMSVidFeatures        10030f44     strmbase:strmiids.obj
 0002:00001f54       _IID_IMSVidAudioRendererDevices 10030f54     strmbase:strmiids.obj
 0002:00001f64       _IID_IMSVidVideoRendererDevices 10030f64     strmbase:strmiids.obj
 0002:00001f74       _IID_IMSVidOutputDevices   10030f74     strmbase:strmiids.obj
 0002:00001f84       _IID_IMSVidInputDevices    10030f84     strmbase:strmiids.obj
 0002:00001f94       _IID_IMSVidAudioRendererEvent 10030f94     strmbase:strmiids.obj
 0002:00001fa4       _IID_IMSVidAudioRenderer   10030fa4     strmbase:strmiids.obj
 0002:00001fb4       _IID_IMSVidVideoRendererEvent2 10030fb4     strmbase:strmiids.obj
 0002:00001fc4       _IID_IMSVidVideoRenderer2  10030fc4     strmbase:strmiids.obj
 0002:00001fd4       _IID_IMSVidStreamBufferSourceEvent 10030fd4     strmbase:strmiids.obj
 0002:00001fe4       _IID_IMSVidStreamBufferSource 10030fe4     strmbase:strmiids.obj
 0002:00001ff4       _IID_IMSVidStreamBufferSinkEvent 10030ff4     strmbase:strmiids.obj
 0002:00002004       _IID_IMSVidStreamBufferSink 10031004     strmbase:strmiids.obj
 0002:00002014       _IID_IMSVidStreamBufferRecordingControl 10031014     strmbase:strmiids.obj
 0002:00002024       _IID_IMSVidVideoRendererEvent 10031024     strmbase:strmiids.obj
 0002:00002034       _IID_IMSVidVideoRenderer   10031034     strmbase:strmiids.obj
 0002:00002044       _IID_IMSVidClosedCaptioning2 10031044     strmbase:strmiids.obj
 0002:00002054       _IID_IMSVidClosedCaptioning 10031054     strmbase:strmiids.obj
 0002:00002064       _IID_IMSVidDataServicesEvent 10031064     strmbase:strmiids.obj
 0002:00002074       _IID_IMSVidDataServices    10031074     strmbase:strmiids.obj
 0002:00002084       _IID_IMSVidXDS             10031084     strmbase:strmiids.obj
 0002:00002094       _IID_IMSVidEncoder         10031094     strmbase:strmiids.obj
 0002:000020a4       _IID_IMSVidFeatureEvent    100310a4     strmbase:strmiids.obj
 0002:000020b4       _IID_IMSVidFeature         100310b4     strmbase:strmiids.obj
 0002:000020c4       _IID_IMSVidOutputDeviceEvent 100310c4     strmbase:strmiids.obj
 0002:000020d4       _IID_IMSVidOutputDevice    100310d4     strmbase:strmiids.obj
 0002:000020e4       _IID_IMSVidWebDVDAdm       100310e4     strmbase:strmiids.obj
 0002:000020f4       _IID_IMSVidWebDVDEvent     100310f4     strmbase:strmiids.obj
 0002:00002104       _IID_IMSVidWebDVD          10031104     strmbase:strmiids.obj
 0002:00002114       _IID_IMSVidFilePlaybackEvent 10031114     strmbase:strmiids.obj
 0002:00002124       _IID_IMSVidFilePlayback    10031124     strmbase:strmiids.obj
 0002:00002134       _IID_IMSVidAnalogTunerEvent 10031134     strmbase:strmiids.obj
 0002:00002144       _IID_IMSVidAnalogTuner     10031144     strmbase:strmiids.obj
 0002:00002154       _IID_IMSVidTunerEvent      10031154     strmbase:strmiids.obj
 0002:00002164       _IID_IMSVidTuner           10031164     strmbase:strmiids.obj
 0002:00002174       _IID_IMSVidPlaybackEvent   10031174     strmbase:strmiids.obj
 0002:00002184       _IID_IMSVidPlayback        10031184     strmbase:strmiids.obj
 0002:00002194       _IID_IMSVidVideoInputDevice 10031194     strmbase:strmiids.obj
 0002:000021a4       _IID_IMSVidInputDeviceEvent 100311a4     strmbase:strmiids.obj
 0002:000021b4       _IID_IMSVidDeviceEvent     100311b4     strmbase:strmiids.obj
 0002:000021c4       _IID_IMSVidInputDevice     100311c4     strmbase:strmiids.obj
 0002:000021d4       _IID_IMSVidDevice          100311d4     strmbase:strmiids.obj
 0002:000021e4       _IID_IMSVidVRGraphSegment  100311e4     strmbase:strmiids.obj
 0002:000021f4       _IID_IEnumMSVidGraphSegment 100311f4     strmbase:strmiids.obj
 0002:00002204       _IID_IMSVidCompositionSegment 10031204     strmbase:strmiids.obj
 0002:00002214       _IID_IMSVidGraphSegmentUserInput 10031214     strmbase:strmiids.obj
 0002:00002224       _IID_IMSVidGraphSegment    10031224     strmbase:strmiids.obj
 0002:00002234       _IID_IMSVidGraphSegmentContainer 10031234     strmbase:strmiids.obj
 0002:00002244       _IID_IMSVidRect            10031244     strmbase:strmiids.obj
 0002:00002254       _CLSID_BroadcastEventService 10031254     strmbase:strmiids.obj
 0002:00002264       _CLSID_CreatePropBagOnRegKey 10031264     strmbase:strmiids.obj
 0002:00002274       _CLSID_DVBTuneRequest      10031274     strmbase:strmiids.obj
 0002:00002284       _CLSID_DVBCLocator         10031284     strmbase:strmiids.obj
 0002:00002294       _CLSID_DVBSLocator         10031294     strmbase:strmiids.obj
 0002:000022a4       _CLSID_DVBTLocator         100312a4     strmbase:strmiids.obj
 0002:000022b4       _CLSID_ATSCLocator         100312b4     strmbase:strmiids.obj
 0002:000022c4       _CLSID_Locator             100312c4     strmbase:strmiids.obj
 0002:000022d4       _CLSID_MPEG2TuneRequestFactory 100312d4     strmbase:strmiids.obj
 0002:000022e4       _CLSID_MPEG2TuneRequest    100312e4     strmbase:strmiids.obj
 0002:000022f4       _CLSID_ATSCChannelTuneRequest 100312f4     strmbase:strmiids.obj
 0002:00002304       _CLSID_ChannelTuneRequest  10031304     strmbase:strmiids.obj
 0002:00002314       _CLSID_TuneRequest         10031314     strmbase:strmiids.obj
 0002:00002324       _CLSID_MPEG2Component      10031324     strmbase:strmiids.obj
 0002:00002334       _CLSID_Component           10031334     strmbase:strmiids.obj
 0002:00002344       _CLSID_Components          10031344     strmbase:strmiids.obj
 0002:00002354       _CLSID_ATSCComponentType   10031354     strmbase:strmiids.obj
 0002:00002364       _CLSID_MPEG2ComponentType  10031364     strmbase:strmiids.obj
 0002:00002374       _CLSID_LanguageComponentType 10031374     strmbase:strmiids.obj
 0002:00002384       _CLSID_ComponentType       10031384     strmbase:strmiids.obj
 0002:00002394       _CLSID_ComponentTypes      10031394     strmbase:strmiids.obj
 0002:000023a4       _CLSID_DVBSTuningSpace     100313a4     strmbase:strmiids.obj
 0002:000023b4       _CLSID_DVBTuningSpace      100313b4     strmbase:strmiids.obj
 0002:000023c4       _CLSID_AnalogTVTuningSpace 100313c4     strmbase:strmiids.obj
 0002:000023d4       _CLSID_AuxInTuningSpace    100313d4     strmbase:strmiids.obj
 0002:000023e4       _CLSID_AnalogRadioTuningSpace 100313e4     strmbase:strmiids.obj
 0002:000023f4       _CLSID_ATSCTuningSpace     100313f4     strmbase:strmiids.obj
 0002:00002404       _CLSID_TuningSpace         10031404     strmbase:strmiids.obj
 0002:00002414       _CLSID_SystemTuningSpaces  10031414     strmbase:strmiids.obj
 0002:00002424       _LIBID_TunerLib            10031424     strmbase:strmiids.obj
 0002:00002434       _IID_IBroadcastEvent       10031434     strmbase:strmiids.obj
 0002:00002444       _IID_IDVBCLocator          10031444     strmbase:strmiids.obj
 0002:00002454       _IID_IDVBSLocator          10031454     strmbase:strmiids.obj
 0002:00002464       _IID_IDVBTLocator          10031464     strmbase:strmiids.obj
 0002:00002474       _IID_IATSCLocator          10031474     strmbase:strmiids.obj
 0002:00002484       _IID_ILocator              10031484     strmbase:strmiids.obj
 0002:00002494       _IID_IComponents           10031494     strmbase:strmiids.obj
 0002:000024a4       _IID_IEnumComponents       100314a4     strmbase:strmiids.obj
 0002:000024b4       _IID_IMPEG2Component       100314b4     strmbase:strmiids.obj
 0002:000024c4       _IID_IComponent            100314c4     strmbase:strmiids.obj
 0002:000024d4       _IID_IComponentTypes       100314d4     strmbase:strmiids.obj
 0002:000024e4       _IID_IEnumComponentTypes   100314e4     strmbase:strmiids.obj
 0002:000024f4       _IID_IATSCComponentType    100314f4     strmbase:strmiids.obj
 0002:00002504       _IID_IMPEG2ComponentType   10031504     strmbase:strmiids.obj
 0002:00002514       _IID_ILanguageComponentType 10031514     strmbase:strmiids.obj
 0002:00002524       _IID_IComponentType        10031524     strmbase:strmiids.obj
 0002:00002534       _IID_IScanningTuner        10031534     strmbase:strmiids.obj
 0002:00002544       _IID_ITuner                10031544     strmbase:strmiids.obj
 0002:00002554       _IID_IMPEG2TuneRequestSupport 10031554     strmbase:strmiids.obj
 0002:00002564       _IID_IMPEG2TuneRequestFactory 10031564     strmbase:strmiids.obj
 0002:00002574       _IID_IMPEG2TuneRequest     10031574     strmbase:strmiids.obj
 0002:00002584       _IID_IDVBTuneRequest       10031584     strmbase:strmiids.obj
 0002:00002594       _IID_IATSCChannelTuneRequest 10031594     strmbase:strmiids.obj
 0002:000025a4       _IID_IChannelTuneRequest   100315a4     strmbase:strmiids.obj
 0002:000025b4       _IID_ITuneRequest          100315b4     strmbase:strmiids.obj
 0002:000025c4       _IID_IAnalogRadioTuningSpace 100315c4     strmbase:strmiids.obj
 0002:000025d4       _IID_IATSCTuningSpace      100315d4     strmbase:strmiids.obj
 0002:000025e4       _IID_IAnalogTVTuningSpace  100315e4     strmbase:strmiids.obj
 0002:000025f4       _IID_IAuxInTuningSpace     100315f4     strmbase:strmiids.obj
 0002:00002604       _IID_IDVBSTuningSpace      10031604     strmbase:strmiids.obj
 0002:00002614       _IID_IDVBTuningSpace2      10031614     strmbase:strmiids.obj
 0002:00002624       _IID_IDVBTuningSpace       10031624     strmbase:strmiids.obj
 0002:00002634       _IID_IEnumTuningSpaces     10031634     strmbase:strmiids.obj
 0002:00002644       _IID_ITuningSpace          10031644     strmbase:strmiids.obj
 0002:00002654       _IID_ITuningSpaceContainer 10031654     strmbase:strmiids.obj
 0002:00002664       _IID_ITuningSpaces         10031664     strmbase:strmiids.obj
 0002:00002674       _IID_ICreatePropBagOnRegKey 10031674     strmbase:strmiids.obj
 0002:00002684       _IID_IVPManager            10031684     strmbase:strmiids.obj
 0002:00002694       _IID_IVMRImagePresenterExclModeConfig 10031694     strmbase:strmiids.obj
 0002:000026a4       _IID_IVMRImagePresenterConfig 100316a4     strmbase:strmiids.obj
 0002:000026b4       _IID_IVMRSurface           100316b4     strmbase:strmiids.obj
 0002:000026c4       _IID_IVMRVideoStreamControl 100316c4     strmbase:strmiids.obj
 0002:000026d4       _IID_IVMRImageCompositor   100316d4     strmbase:strmiids.obj
 0002:000026e4       _IID_IVMRMixerBitmap       100316e4     strmbase:strmiids.obj
 0002:000026f4       _IID_IVMRDeinterlaceControl 100316f4     strmbase:strmiids.obj
 0002:00002704       _IID_IVMRAspectRatioControl 10031704     strmbase:strmiids.obj
 0002:00002714       _IID_IVMRFilterConfig      10031714     strmbase:strmiids.obj
 0002:00002724       _IID_IVMRMonitorConfig     10031724     strmbase:strmiids.obj
 0002:00002734       _IID_IVMRMixerControl      10031734     strmbase:strmiids.obj
 0002:00002744       _IID_IVMRWindowlessControl 10031744     strmbase:strmiids.obj
 0002:00002754       _IID_IVMRSurfaceAllocatorNotify 10031754     strmbase:strmiids.obj
 0002:00002764       _IID_IVMRSurfaceAllocator  10031764     strmbase:strmiids.obj
 0002:00002774       _IID_IVMRImagePresenter    10031774     strmbase:strmiids.obj
 0002:00002784       _IID_IFilterChain          10031784     strmbase:strmiids.obj
 0002:00002794       _IID_IGraphConfigCallback  10031794     strmbase:strmiids.obj
 0002:000027a4       _IID_IGraphConfig          100317a4     strmbase:strmiids.obj
 0002:000027b4       _IID_IPinFlowControl       100317b4     strmbase:strmiids.obj
 0002:000027c4       _IID_IPinConnection        100317c4     strmbase:strmiids.obj
 0002:000027d4       _IID_IDDrawExclModeVideoCallback 100317d4     strmbase:strmiids.obj
 0002:000027e4       _IID_IDDrawExclModeVideo   100317e4     strmbase:strmiids.obj
 0002:000027f4       _IID_IDvdGraphBuilder      100317f4     strmbase:strmiids.obj
 0002:00002804       _IID_IDvdInfo2             10031804     strmbase:strmiids.obj
 0002:00002814       _IID_IDvdControl2          10031814     strmbase:strmiids.obj
 0002:00002824       _IID_IDvdState             10031824     strmbase:strmiids.obj
 0002:00002834       _IID_IDvdCmd               10031834     strmbase:strmiids.obj
 0002:00002844       _IID_IDvdInfo              10031844     strmbase:strmiids.obj
 0002:00002854       _IID_IDvdControl           10031854     strmbase:strmiids.obj
 0002:00002864       _IID_IAMDecoderCaps        10031864     strmbase:strmiids.obj
 0002:00002874       _IID_IVideoEncoder         10031874     strmbase:strmiids.obj
 0002:00002884       _IID_IEncoderAPI           10031884     strmbase:strmiids.obj
 0002:00002894       _IID_IGetCapabilitiesKey   10031894     strmbase:strmiids.obj
 0002:000028a4       _IID_ICodecAPI             100318a4     strmbase:strmiids.obj
 0002:000028b4       _IID_IAMGraphBuilderCallback 100318b4     strmbase:strmiids.obj
 0002:000028c4       _IID_IAMClockSlave         100318c4     strmbase:strmiids.obj
 0002:000028d4       _IID_IRegisterServiceProvider 100318d4     strmbase:strmiids.obj
 0002:000028e4       _IID_IMPEG2StreamIdMap     100318e4     strmbase:strmiids.obj
 0002:000028f4       _IID_IEnumStreamIdMap      100318f4     strmbase:strmiids.obj
 0002:00002904       _IID_IMpeg2Demultiplexer   10031904     strmbase:strmiids.obj
 0002:00002914       _IID_IAMOpenProgress       10031914     strmbase:strmiids.obj
 0002:00002924       _IID_IAMOverlayFX          10031924     strmbase:strmiids.obj
 0002:00002934       _IID_IAMGraphStreams       10031934     strmbase:strmiids.obj
 0002:00002944       _IID_IAMAudioRendererStats 10031944     strmbase:strmiids.obj
 0002:00002954       _IID_IDVSplitter           10031954     strmbase:strmiids.obj
 0002:00002964       _IID_IDVRGB219             10031964     strmbase:strmiids.obj
 0002:00002974       _IID_IIPDVDec              10031974     strmbase:strmiids.obj
 0002:00002984       _IID_IDVEnc                10031984     strmbase:strmiids.obj
 0002:00002994       _IID_IAMDeviceRemoval      10031994     strmbase:strmiids.obj
 0002:000029a4       _IID_IAMPushSource         100319a4     strmbase:strmiids.obj
 0002:000029b4       _IID_IAMLatency            100319b4     strmbase:strmiids.obj
 0002:000029c4       _IID_IVideoFrameStep       100319c4     strmbase:strmiids.obj
 0002:000029d4       _IID_IAMVideoDecimationProperties 100319d4     strmbase:strmiids.obj
 0002:000029e4       _IID_IDecimateVideoImage   100319e4     strmbase:strmiids.obj
 0002:000029f4       _IID_IDrawVideoImage       100319f4     strmbase:strmiids.obj
 0002:00002a04       _IID_IAMFilterMiscFlags    10031a04     strmbase:strmiids.obj
 0002:00002a14       _IID_IAMClockAdjust        10031a14     strmbase:strmiids.obj
 0002:00002a24       _IID_IAMResourceControl    10031a24     strmbase:strmiids.obj
 0002:00002a34       _IID_IAMStreamSelect       10031a34     strmbase:strmiids.obj
 0002:00002a44       _IID_IAMDevMemoryControl   10031a44     strmbase:strmiids.obj
 0002:00002a54       _IID_IAMDevMemoryAllocator 10031a54     strmbase:strmiids.obj
 0002:00002a64       _IID_IAMTimecodeDisplay    10031a64     strmbase:strmiids.obj
 0002:00002a74       _IID_IAMTimecodeGenerator  10031a74     strmbase:strmiids.obj
 0002:00002a84       _IID_IAMTimecodeReader     10031a84     strmbase:strmiids.obj
 0002:00002a94       _IID_IAMExtTransport       10031a94     strmbase:strmiids.obj
 0002:00002aa4       _IID_IAMExtDevice          10031aa4     strmbase:strmiids.obj
 0002:00002ab4       _IID_IAMPhysicalPinInfo    10031ab4     strmbase:strmiids.obj
 0002:00002ac4       _IID_IPersistMediaPropertyBag 10031ac4     strmbase:strmiids.obj
 0002:00002ad4       _IID_IMediaPropertyBag     10031ad4     strmbase:strmiids.obj
 0002:00002ae4       _IID_IKsPropertySet        10031ae4     strmbase:strmiids.obj
 0002:00002af4       _IID_IAMAnalogVideoEncoder 10031af4     strmbase:strmiids.obj
 0002:00002b04       _IID_IAMTVAudioNotification 10031b04     strmbase:strmiids.obj
 0002:00002b14       _IID_IAMTVAudio            10031b14     strmbase:strmiids.obj
 0002:00002b24       _IID_IBPCSatelliteTuner    10031b24     strmbase:strmiids.obj
 0002:00002b34       _IID_IAMTVTuner            10031b34     strmbase:strmiids.obj
 0002:00002b44       _IID_IAMTunerNotification  10031b44     strmbase:strmiids.obj
 0002:00002b54       _IID_IAMTuner              10031b54     strmbase:strmiids.obj
 0002:00002b64       _IID_IAMCrossbar           10031b64     strmbase:strmiids.obj
 0002:00002b74       _IID_IAMVideoControl       10031b74     strmbase:strmiids.obj
 0002:00002b84       _IID_IAMCameraControl      10031b84     strmbase:strmiids.obj
 0002:00002b94       _IID_IAMVideoProcAmp       10031b94     strmbase:strmiids.obj
 0002:00002ba4       _IID_IAMAnalogVideoDecoder 10031ba4     strmbase:strmiids.obj
 0002:00002bb4       _IID_IAMBufferNegotiation  10031bb4     strmbase:strmiids.obj
 0002:00002bc4       _IID_IAMAudioInputMixer    10031bc4     strmbase:strmiids.obj
 0002:00002bd4       _IID_IAMDroppedFrames      10031bd4     strmbase:strmiids.obj
 0002:00002be4       _IID_IAMVfwCompressDialogs 10031be4     strmbase:strmiids.obj
 0002:00002bf4       _IID_IAMVfwCaptureDialogs  10031bf4     strmbase:strmiids.obj
 0002:00002c04       _IID_IAMVideoCompression   10031c04     strmbase:strmiids.obj
 0002:00002c14       _IID_IConfigAviMux         10031c14     strmbase:strmiids.obj
 0002:00002c24       _IID_IConfigInterleaving   10031c24     strmbase:strmiids.obj
 0002:00002c34       _IID_IAMStreamConfig       10031c34     strmbase:strmiids.obj
 0002:00002c44       _IID_ISeekingPassThru      10031c44     strmbase:strmiids.obj
 0002:00002c54       _IID_IAMStreamControl      10031c54     strmbase:strmiids.obj
 0002:00002c64       _IID_IDistributorNotify    10031c64     strmbase:strmiids.obj
 0002:00002c74       _IID_IResourceManager      10031c74     strmbase:strmiids.obj
 0002:00002c84       _IID_IResourceConsumer     10031c84     strmbase:strmiids.obj
 0002:00002c94       _IID_IGraphVersion         10031c94     strmbase:strmiids.obj
 0002:00002ca4       _IID_IAsyncReader          10031ca4     strmbase:strmiids.obj
 0002:00002cb4       _IID_IStreamBuilder        10031cb4     strmbase:strmiids.obj
 0002:00002cc4       _IID_IFilterGraph2         10031cc4     strmbase:strmiids.obj
 0002:00002cd4       _IID_ICaptureGraphBuilder2 10031cd4     strmbase:strmiids.obj
 0002:00002ce4       _IID_IAMCopyCaptureFileProgress 10031ce4     strmbase:strmiids.obj
 0002:00002cf4       _IID_ICaptureGraphBuilder  10031cf4     strmbase:strmiids.obj
 0002:00002d04       _IID_IGraphBuilder         10031d04     strmbase:strmiids.obj
 0002:00002d14       _IID_IFileSinkFilter2      10031d14     strmbase:strmiids.obj
 0002:00002d24       _IID_IFileSinkFilter       10031d24     strmbase:strmiids.obj
 0002:00002d34       _IID_IFileSourceFilter     10031d34     strmbase:strmiids.obj
 0002:00002d44       _IID_IMediaEventSink       10031d44     strmbase:strmiids.obj
 0002:00002d54       _IID_IOverlay              10031d54     strmbase:strmiids.obj
 0002:00002d64       _IID_IOverlayNotify2       10031d64     strmbase:strmiids.obj
 0002:00002d74       _IID_IOverlayNotify        10031d74     strmbase:strmiids.obj
 0002:00002d84       _IID_IQualityControl       10031d84     strmbase:strmiids.obj
 0002:00002d94       _IID_IFilterMapper3        10031d94     strmbase:strmiids.obj
 0002:00002da4       _IID_IFilterMapper2        10031da4     strmbase:strmiids.obj
 0002:00002db4       _IID_IFilterMapper         10031db4     strmbase:strmiids.obj
 0002:00002dc4       _IID_IEnumRegFilters       10031dc4     strmbase:strmiids.obj
 0002:00002dd4       _IID_IMediaSeeking         10031dd4     strmbase:strmiids.obj
 0002:00002de4       _IID_IAMovieSetup          10031de4     strmbase:strmiids.obj
 0002:00002df4       _IID_IMemInputPin          10031df4     strmbase:strmiids.obj
 0002:00002e04       _IID_IMemAllocatorNotifyCallbackTemp 10031e04     strmbase:strmiids.obj
 0002:00002e14       _IID_IMemAllocatorCallbackTemp 10031e14     strmbase:strmiids.obj
 0002:00002e24       _IID_IMemAllocator         10031e24     strmbase:strmiids.obj
 0002:00002e34       _IID_IMediaSample2         10031e34     strmbase:strmiids.obj
 0002:00002e44       _IID_IMediaSample          10031e44     strmbase:strmiids.obj
 0002:00002e54       _IID_IReferenceClock2      10031e54     strmbase:strmiids.obj
 0002:00002e64       _IID_IReferenceClock       10031e64     strmbase:strmiids.obj
 0002:00002e74       _IID_IBaseFilter           10031e74     strmbase:strmiids.obj
 0002:00002e84       _IID_IMediaFilter          10031e84     strmbase:strmiids.obj
 0002:00002e94       _IID_IEnumFilters          10031e94     strmbase:strmiids.obj
 0002:00002ea4       _IID_IFilterGraph          10031ea4     strmbase:strmiids.obj
 0002:00002eb4       _IID_IEnumMediaTypes       10031eb4     strmbase:strmiids.obj
 0002:00002ec4       _IID_IEnumPins             10031ec4     strmbase:strmiids.obj
 0002:00002ed4       _IID_IPin                  10031ed4     strmbase:strmiids.obj
 0002:00002ee4       _IID_ICreateDevEnum        10031ee4     strmbase:strmiids.obj
 0002:00002ef4       _CLSID_DxtKey              10031ef4     strmbase:strmiids.obj
 0002:00002f04       _CLSID_ColorSource         10031f04     strmbase:strmiids.obj
 0002:00002f14       _CLSID_DxtJpeg             10031f14     strmbase:strmiids.obj
 0002:00002f24       _CLSID_DxtAlphaSetter      10031f24     strmbase:strmiids.obj
 0002:00002f34       _CLSID_DxtCompositor       10031f34     strmbase:strmiids.obj
 0002:00002f44       _CLSID_NullRenderer        10031f44     strmbase:strmiids.obj
 0002:00002f54       _CLSID_SampleGrabber       10031f54     strmbase:strmiids.obj
 0002:00002f64       _CLSID_MediaDet            10031f64     strmbase:strmiids.obj
 0002:00002f74       _CLSID_PropertySetter      10031f74     strmbase:strmiids.obj
 0002:00002f84       _CLSID_MediaLocator        10031f84     strmbase:strmiids.obj
 0002:00002f94       _CLSID_Xml2Dex             10031f94     strmbase:strmiids.obj
 0002:00002fa4       _CLSID_AudMixer            10031fa4     strmbase:strmiids.obj
 0002:00002fb4       _CLSID_SmartRenderEngine   10031fb4     strmbase:strmiids.obj
 0002:00002fc4       _CLSID_RenderEngine        10031fc4     strmbase:strmiids.obj
 0002:00002fd4       _CLSID_AMTimelineEffect    10031fd4     strmbase:strmiids.obj
 0002:00002fe4       _CLSID_AMTimelineTrans     10031fe4     strmbase:strmiids.obj
 0002:00002ff4       _CLSID_AMTimelineGroup     10031ff4     strmbase:strmiids.obj
 0002:00003004       _CLSID_AMTimelineComp      10032004     strmbase:strmiids.obj
 0002:00003014       _CLSID_AMTimelineTrack     10032014     strmbase:strmiids.obj
 0002:00003024       _CLSID_AMTimelineSrc       10032024     strmbase:strmiids.obj
 0002:00003034       _CLSID_AMTimelineObj       10032034     strmbase:strmiids.obj
 0002:00003044       _CLSID_AMTimeline          10032044     strmbase:strmiids.obj
 0002:00003054       _IID_IResize               10032054     strmbase:strmiids.obj
 0002:00003064       _LIBID_DexterLib           10032064     strmbase:strmiids.obj
 0002:00003074       _IID_ISampleGrabber        10032074     strmbase:strmiids.obj
 0002:00003084       _IID_ISampleGrabberCB      10032084     strmbase:strmiids.obj
 0002:00003094       _IID_IAMSetErrorLog        10032094     strmbase:strmiids.obj
 0002:000030a4       _IID_IAMErrorLog           100320a4     strmbase:strmiids.obj
 0002:000030b4       _IID_IXml2Dex              100320b4     strmbase:strmiids.obj
 0002:000030c4       _IID_IAMTimeline           100320c4     strmbase:strmiids.obj
 0002:000030d4       _IID_IAMTimelineGroup      100320d4     strmbase:strmiids.obj
 0002:000030e4       _IID_IAMTimelineComp       100320e4     strmbase:strmiids.obj
 0002:000030f4       _IID_IAMTimelineVirtualTrack 100320f4     strmbase:strmiids.obj
 0002:00003104       _IID_IAMTimelineTrack      10032104     strmbase:strmiids.obj
 0002:00003114       _IID_IAMTimelineSrc        10032114     strmbase:strmiids.obj
 0002:00003124       _IID_IAMTimelineTrans      10032124     strmbase:strmiids.obj
 0002:00003134       _IID_IAMTimelineSplittable 10032134     strmbase:strmiids.obj
 0002:00003144       _IID_IAMTimelineTransable  10032144     strmbase:strmiids.obj
 0002:00003154       _IID_IAMTimelineEffect     10032154     strmbase:strmiids.obj
 0002:00003164       _IID_IAMTimelineEffectable 10032164     strmbase:strmiids.obj
 0002:00003174       _IID_IAMTimelineObj        10032174     strmbase:strmiids.obj
 0002:00003184       _IID_ISmartRenderEngine    10032184     strmbase:strmiids.obj
 0002:00003194       _IID_IFindCompressorCB     10032194     strmbase:strmiids.obj
 0002:000031a4       _IID_IRenderEngine2        100321a4     strmbase:strmiids.obj
 0002:000031b4       _IID_IRenderEngine         100321b4     strmbase:strmiids.obj
 0002:000031c4       _IID_IGrfCache             100321c4     strmbase:strmiids.obj
 0002:000031d4       _IID_IMediaDet             100321d4     strmbase:strmiids.obj
 0002:000031e4       _IID_IMediaLocator         100321e4     strmbase:strmiids.obj
 0002:000031f4       _IID_IDxtKey               100321f4     strmbase:strmiids.obj
 0002:00003204       _IID_IDxtJpeg              10032204     strmbase:strmiids.obj
 0002:00003214       _IID_IDxtAlphaSetter       10032214     strmbase:strmiids.obj
 0002:00003224       _IID_IDxtCompositor        10032224     strmbase:strmiids.obj
 0002:00003234       _IID_IPropertySetter       10032234     strmbase:strmiids.obj
 0002:00003244       _IID_IStreamSample         10032244     strmbase:strmiids.obj
 0002:00003254       _IID_IMediaStream          10032254     strmbase:strmiids.obj
 0002:00003264       _IID_IMultiMediaStream     10032264     strmbase:strmiids.obj
 0002:00003274       _IID_IDirectDrawStreamSample 10032274     strmbase:strmiids.obj
 0002:00003284       _IID_IDirectDrawMediaStream 10032284     strmbase:strmiids.obj
 0002:00003294       _IID_IAudioData            10032294     strmbase:strmiids.obj
 0002:000032a4       _IID_IMemoryData           100322a4     strmbase:strmiids.obj
 0002:000032b4       _IID_IAudioStreamSample    100322b4     strmbase:strmiids.obj
 0002:000032c4       _IID_IAudioMediaStream     100322c4     strmbase:strmiids.obj
 0002:000032d4       _CLSID_AMMultiMediaStream  100322d4     strmbase:strmiids.obj
 0002:000032e4       _LIBID_DirectShowStreamLib 100322e4     strmbase:strmiids.obj
 0002:000032f4       _IID_IAMMediaTypeSample    100322f4     strmbase:strmiids.obj
 0002:00003304       _IID_IAMMediaTypeStream    10032304     strmbase:strmiids.obj
 0002:00003314       _IID_IDirectDrawMediaSample 10032314     strmbase:strmiids.obj
 0002:00003324       _IID_IDirectDrawMediaSampleAllocator 10032324     strmbase:strmiids.obj
 0002:00003334       _IID_IMediaStreamFilter    10032334     strmbase:strmiids.obj
 0002:00003344       _IID_IAMMediaStream        10032344     strmbase:strmiids.obj
 0002:00003354       _IID_IAMMultiMediaStream   10032354     strmbase:strmiids.obj
 0002:00003364       _IID_IDirectShowStream     10032364     strmbase:strmiids.obj
 0002:00003374       _IID_IAMStats              10032374     strmbase:strmiids.obj
 0002:00003384       _IID_IPinInfo              10032384     strmbase:strmiids.obj
 0002:00003394       _IID_IMediaTypeInfo        10032394     strmbase:strmiids.obj
 0002:000033a4       _IID_IRegFilterInfo        100323a4     strmbase:strmiids.obj
 0002:000033b4       _IID_IFilterInfo           100323b4     strmbase:strmiids.obj
 0002:000033c4       _CLSID_FilgraphManager     100323c4     strmbase:strmiids.obj
 0002:000033d4       _IID_IQueueCommand         100323d4     strmbase:strmiids.obj
 0002:000033e4       _IID_IDeferredCommand      100323e4     strmbase:strmiids.obj
 0002:000033f4       _IID_IBasicVideo2          100323f4     strmbase:strmiids.obj
 0002:00003404       _IID_IBasicVideo           10032404     strmbase:strmiids.obj
 0002:00003414       _IID_IVideoWindow          10032414     strmbase:strmiids.obj
 0002:00003424       _IID_IBasicAudio           10032424     strmbase:strmiids.obj
 0002:00003434       _IID_IMediaPosition        10032434     strmbase:strmiids.obj
 0002:00003444       _IID_IMediaEventEx         10032444     strmbase:strmiids.obj
 0002:00003454       _IID_IMediaEvent           10032454     strmbase:strmiids.obj
 0002:00003464       _IID_IMediaControl         10032464     strmbase:strmiids.obj
 0002:00003474       _IID_IAMCollection         10032474     strmbase:strmiids.obj
 0002:00003484       _LIBID_QuartzTypeLib       10032484     strmbase:strmiids.obj
 0002:00003494       _CODECAPI_CURRENTCHANGELIST 10032494     strmbase:strmiids.obj
 0002:000034a4       _CODECAPI_SUPPORTSEVENTS   100324a4     strmbase:strmiids.obj
 0002:000034b4       _CODECAPI_ALLSETTINGS      100324b4     strmbase:strmiids.obj
 0002:000034c4       _CODECAPI_SETALLDEFAULTS   100324c4     strmbase:strmiids.obj
 0002:000034d4       _CODECAPI_AUDIO_ENCODER    100324d4     strmbase:strmiids.obj
 0002:000034e4       _CODECAPI_VIDEO_ENCODER    100324e4     strmbase:strmiids.obj
 0002:000034f4       _CODECAPI_CHANGELISTS      100324f4     strmbase:strmiids.obj
 0002:00003504       _ENCAPIPARAM_BITRATE_MODE  10032504     strmbase:strmiids.obj
 0002:00003514       _ENCAPIPARAM_PEAK_BITRATE  10032514     strmbase:strmiids.obj
 0002:00003524       _ENCAPIPARAM_BITRATE       10032524     strmbase:strmiids.obj
 0002:00003534       _CLSID_IVideoEncoderCodecAPIProxy 10032534     strmbase:strmiids.obj
 0002:00003544       _CLSID_ICodecAPIProxy      10032544     strmbase:strmiids.obj
 0002:00003554       _CLSID_IVideoEncoderProxy  10032554     strmbase:strmiids.obj
 0002:00003564       _CLSID_TVEFilterStatsProperties 10032564     strmbase:strmiids.obj
 0002:00003574       _CLSID_TVEFilterCCProperties 10032574     strmbase:strmiids.obj
 0002:00003584       _CLSID_TVEFilterTuneProperties 10032584     strmbase:strmiids.obj
 0002:00003594       _CLSID_DShowTVEFilter      10032594     strmbase:strmiids.obj
 0002:000035a4       _CLSID_DVBCNetworkProvider 100325a4     strmbase:strmiids.obj
 0002:000035b4       _CLSID_DVBTNetworkProvider 100325b4     strmbase:strmiids.obj
 0002:000035c4       _CLSID_DVBSNetworkProvider 100325c4     strmbase:strmiids.obj
 0002:000035d4       _CLSID_ATSCNetworkPropertyPage 100325d4     strmbase:strmiids.obj
 0002:000035e4       _CLSID_ATSCNetworkProvider 100325e4     strmbase:strmiids.obj
 0002:000035f4       _CLSID_VideoMixingRenderer9 100325f4     strmbase:strmiids.obj
 0002:00003604       _CLSID_VideoPortManager    10032604     strmbase:strmiids.obj
 0002:00003614       _CLSID_AllocPresenterDDXclMode 10032614     strmbase:strmiids.obj
 0002:00003624       _CLSID_AllocPresenter      10032624     strmbase:strmiids.obj
 0002:00003634       _CLSID_VideoRendererDefault 10032634     strmbase:strmiids.obj
 0002:00003644       _CLSID_VideoMixingRenderer 10032644     strmbase:strmiids.obj
 0002:00003654       _CLSID_AudioRendererAdvancedProperties 10032654     strmbase:strmiids.obj
 0002:00003664       _CLSID_VideoStreamConfigPropertyPage 10032664     strmbase:strmiids.obj
 0002:00003674       _CLSID_AnalogVideoDecoderPropertyPage 10032674     strmbase:strmiids.obj
 0002:00003684       _CLSID_CameraControlPropertyPage 10032684     strmbase:strmiids.obj
 0002:00003694       _CLSID_VideoProcAmpPropertyPage 10032694     strmbase:strmiids.obj
 0002:000036a4       _CLSID_TVAudioFilterPropertyPage 100326a4     strmbase:strmiids.obj
 0002:000036b4       _CLSID_CrossbarFilterPropertyPage 100326b4     strmbase:strmiids.obj
 0002:000036c4       _CLSID_TVTunerFilterPropertyPage 100326c4     strmbase:strmiids.obj
 0002:000036d4       _LOOK_DOWNSTREAM_ONLY      100326d4     strmbase:strmiids.obj
 0002:000036e4       _LOOK_UPSTREAM_ONLY        100326e4     strmbase:strmiids.obj
 0002:000036f4       _PIN_CATEGORY_VIDEOPORT_VBI 100326f4     strmbase:strmiids.obj
 0002:00003704       _PIN_CATEGORY_TIMECODE     10032704     strmbase:strmiids.obj
 0002:00003714       _PIN_CATEGORY_STILL        10032714     strmbase:strmiids.obj
 0002:00003724       _PIN_CATEGORY_CC           10032724     strmbase:strmiids.obj
 0002:00003734       _PIN_CATEGORY_TELETEXT     10032734     strmbase:strmiids.obj
 0002:00003744       _PIN_CATEGORY_EDS          10032744     strmbase:strmiids.obj
 0002:00003754       _PIN_CATEGORY_NABTS        10032754     strmbase:strmiids.obj
 0002:00003764       _PIN_CATEGORY_VIDEOPORT    10032764     strmbase:strmiids.obj
 0002:00003774       _PIN_CATEGORY_VBI          10032774     strmbase:strmiids.obj
 0002:00003784       _PIN_CATEGORY_ANALOGVIDEOIN 10032784     strmbase:strmiids.obj
 0002:00003794       _PIN_CATEGORY_PREVIEW      10032794     strmbase:strmiids.obj
 0002:000037a4       _PIN_CATEGORY_CAPTURE      100327a4     strmbase:strmiids.obj
 0002:000037b4       _AMPROPSETID_Pin           100327b4     strmbase:strmiids.obj
 0002:000037c4       _TIME_FORMAT_MEDIA_TIME    100327c4     strmbase:strmiids.obj
 0002:000037d4       _TIME_FORMAT_FIELD         100327d4     strmbase:strmiids.obj
 0002:000037e4       _TIME_FORMAT_SAMPLE        100327e4     strmbase:strmiids.obj
 0002:000037f4       _TIME_FORMAT_BYTE          100327f4     strmbase:strmiids.obj
 0002:00003804       _TIME_FORMAT_FRAME         10032804     strmbase:strmiids.obj
 0002:00003814       _TIME_FORMAT_NONE          10032814     strmbase:strmiids.obj
 0002:00003824       _AM_INTERFACESETID_Standard 10032824     strmbase:strmiids.obj
 0002:00003834       _IID_IKsPinFactory         10032834     strmbase:strmiids.obj
 0002:00003844       _IID_IKsControl            10032844     strmbase:strmiids.obj
 0002:00003854       _IID_IKsPin                10032854     strmbase:strmiids.obj
 0002:00003864       _IID_IKsDataTypeHandler    10032864     strmbase:strmiids.obj
 0002:00003874       _IID_IKsInterfaceHandler   10032874     strmbase:strmiids.obj
 0002:00003884       _AM_KSCATEGORY_SPLITTER    10032884     strmbase:strmiids.obj
 0002:00003894       _AM_KSCATEGORY_VBICODEC    10032894     strmbase:strmiids.obj
 0002:000038a4       _AM_KSCATEGORY_TVAUDIO     100328a4     strmbase:strmiids.obj
 0002:000038b4       _AM_KSCATEGORY_CROSSBAR    100328b4     strmbase:strmiids.obj
 0002:000038c4       _AM_KSCATEGORY_TVTUNER     100328c4     strmbase:strmiids.obj
 0002:000038d4       _AM_KSCATEGORY_VIDEO       100328d4     strmbase:strmiids.obj
 0002:000038e4       _AM_KSCATEGORY_AUDIO       100328e4     strmbase:strmiids.obj
 0002:000038f4       _AM_KSCATEGORY_DATACOMPRESSOR 100328f4     strmbase:strmiids.obj
 0002:00003904       _AM_KSCATEGORY_RENDER      10032904     strmbase:strmiids.obj
 0002:00003914       _AM_KSCATEGORY_CAPTURE     10032914     strmbase:strmiids.obj
 0002:00003924       _AM_KSPROPSETID_FrameStep  10032924     strmbase:strmiids.obj
 0002:00003934       _AM_KSPROPSETID_DvdKaraoke 10032934     strmbase:strmiids.obj
 0002:00003944       _AM_KSPROPSETID_DVD_RateChange 10032944     strmbase:strmiids.obj
 0002:00003954       _AM_KSPROPSETID_TSRateChange 10032954     strmbase:strmiids.obj
 0002:00003964       _AM_KSPROPSETID_CopyProt   10032964     strmbase:strmiids.obj
 0002:00003974       _AM_KSPROPSETID_DvdSubPic  10032974     strmbase:strmiids.obj
 0002:00003984       _AM_KSPROPSETID_AC3        10032984     strmbase:strmiids.obj
 0002:00003994       _FORMAT_DVD_LPCMAudio      10032994     strmbase:strmiids.obj
 0002:000039a4       _FORMAT_MPEG2Audio         100329a4     strmbase:strmiids.obj
 0002:000039b4       _FORMAT_DolbyAC3           100329b4     strmbase:strmiids.obj
 0002:000039c4       _FORMAT_MPEG2Video         100329c4     strmbase:strmiids.obj
 0002:000039d4       _MEDIASUBTYPE_DVD_NAVIGATION_PROVIDER 100329d4     strmbase:strmiids.obj
 0002:000039e4       _MEDIASUBTYPE_DVD_NAVIGATION_DSI 100329e4     strmbase:strmiids.obj
 0002:000039f4       _MEDIASUBTYPE_DVD_NAVIGATION_PCI 100329f4     strmbase:strmiids.obj
 0002:00003a04       _MEDIATYPE_DVD_NAVIGATION  10032a04     strmbase:strmiids.obj
 0002:00003a14       _MEDIATYPE_DVD_ENCRYPTED_PACK 10032a14     strmbase:strmiids.obj
 0002:00003a24       _MEDIASUBTYPE_SDDS         10032a24     strmbase:strmiids.obj
 0002:00003a34       _MEDIASUBTYPE_DTS          10032a34     strmbase:strmiids.obj
 0002:00003a44       _MEDIASUBTYPE_DVD_LPCM_AUDIO 10032a44     strmbase:strmiids.obj
 0002:00003a54       _MEDIASUBTYPE_DVD_SUBPICTURE 10032a54     strmbase:strmiids.obj
 0002:00003a64       _MEDIASUBTYPE_DOLBY_AC3    10032a64     strmbase:strmiids.obj
 0002:00003a74       _MEDIASUBTYPE_MPEG2_AUDIO  10032a74     strmbase:strmiids.obj
 0002:00003a84       _MEDIASUBTYPE_MPEG2_TRANSPORT_STRIDE 10032a84     strmbase:strmiids.obj
 0002:00003a94       _MEDIASUBTYPE_MPEG2_TRANSPORT 10032a94     strmbase:strmiids.obj
 0002:00003aa4       _MEDIASUBTYPE_MPEG2_PROGRAM 10032aa4     strmbase:strmiids.obj
 0002:00003ab4       _FORMAT_VIDEOINFO2         10032ab4     strmbase:strmiids.obj
 0002:00003ac4       _FORMAT_MPEG2_VIDEO        10032ac4     strmbase:strmiids.obj
 0002:00003ad4       _MEDIASUBTYPE_MPEG2_VIDEO  10032ad4     strmbase:strmiids.obj
 0002:00003ae4       _MEDIASUBTYPE_MPEG2DATA    10032ae4     strmbase:strmiids.obj
 0002:00003af4       _MEDIASUBTYPE_DVB_SI       10032af4     strmbase:strmiids.obj
 0002:00003b04       _MEDIASUBTYPE_ATSC_SI      10032b04     strmbase:strmiids.obj
 0002:00003b14       _MEDIATYPE_MPEG2_SECTIONS  10032b14     strmbase:strmiids.obj
 0002:00003b24       _MEDIATYPE_MPEG2_PES       10032b24     strmbase:strmiids.obj
 0002:00003b34       _MEDIATYPE_MPEG2_PACK      10032b34     strmbase:strmiids.obj
 0002:00003b44       _MEDIATYPE_AnalogAudio     10032b44     strmbase:strmiids.obj
 0002:00003b54       _MEDIASUBTYPE_AnalogVideo_SECAM_L 10032b54     strmbase:strmiids.obj
 0002:00003b64       _MEDIASUBTYPE_AnalogVideo_SECAM_K1 10032b64     strmbase:strmiids.obj
 0002:00003b74       _MEDIASUBTYPE_AnalogVideo_SECAM_K 10032b74     strmbase:strmiids.obj
 0002:00003b84       _MEDIASUBTYPE_AnalogVideo_SECAM_H 10032b84     strmbase:strmiids.obj
 0002:00003b94       _MEDIASUBTYPE_AnalogVideo_SECAM_G 10032b94     strmbase:strmiids.obj
 0002:00003ba4       _MEDIASUBTYPE_AnalogVideo_SECAM_D 10032ba4     strmbase:strmiids.obj
 0002:00003bb4       _MEDIASUBTYPE_AnalogVideo_SECAM_B 10032bb4     strmbase:strmiids.obj
 0002:00003bc4       _MEDIASUBTYPE_AnalogVideo_PAL_N_COMBO 10032bc4     strmbase:strmiids.obj
 0002:00003bd4       _MEDIASUBTYPE_AnalogVideo_PAL_N 10032bd4     strmbase:strmiids.obj
 0002:00003be4       _MEDIASUBTYPE_AnalogVideo_PAL_M 10032be4     strmbase:strmiids.obj
 0002:00003bf4       _MEDIASUBTYPE_AnalogVideo_PAL_I 10032bf4     strmbase:strmiids.obj
 0002:00003c04       _MEDIASUBTYPE_AnalogVideo_PAL_H 10032c04     strmbase:strmiids.obj
 0002:00003c14       _MEDIASUBTYPE_AnalogVideo_PAL_G 10032c14     strmbase:strmiids.obj
 0002:00003c24       _MEDIASUBTYPE_AnalogVideo_PAL_D 10032c24     strmbase:strmiids.obj
 0002:00003c34       _MEDIASUBTYPE_AnalogVideo_PAL_B 10032c34     strmbase:strmiids.obj
 0002:00003c44       _MEDIASUBTYPE_AnalogVideo_NTSC_M 10032c44     strmbase:strmiids.obj
 0002:00003c54       _MEDIATYPE_AnalogVideo     10032c54     strmbase:strmiids.obj
 0002:00003c64       _FORMAT_AnalogVideo        10032c64     strmbase:strmiids.obj
 0002:00003c74       _CLSID_WstDecoderPropertyPage 10032c74     strmbase:strmiids.obj
 0002:00003c84       _IID_IAMWstDecoder         10032c84     strmbase:strmiids.obj
 0002:00003c94       _IID_IAMLine21Decoder      10032c94     strmbase:strmiids.obj
 0002:00003ca4       _IID_IMpegAudioDecoder     10032ca4     strmbase:strmiids.obj
 0002:00003cb4       _IID_IAMDirectSound        10032cb4     strmbase:strmiids.obj
 0002:00003cc4       _CLSID_DVMuxPropertyPage   10032cc4     strmbase:strmiids.obj
 0002:00003cd4       _CLSID_DVEncPropertiesPage 10032cd4     strmbase:strmiids.obj
 0002:00003ce4       _CLSID_DVDecPropertiesPage 10032ce4     strmbase:strmiids.obj
 0002:00003cf4       _IID_IFullScreenVideoEx    10032cf4     strmbase:strmiids.obj
 0002:00003d04       _IID_IFullScreenVideo      10032d04     strmbase:strmiids.obj
 0002:00003d14       _CLSID_ModexProperties     10032d14     strmbase:strmiids.obj
 0002:00003d24       _IID_IDirectDrawSurfaceKernel 10032d24     strmbase:strmiids.obj
 0002:00003d34       _IID_IDirectDrawKernel     10032d34     strmbase:strmiids.obj
 0002:00003d44       _IID_IDDVideoPortContainer 10032d44     strmbase:strmiids.obj
 0002:00003d54       _IID_IDirectDrawColorControl 10032d54     strmbase:strmiids.obj
 0002:00003d64       _IID_IDirectDrawClipper    10032d64     strmbase:strmiids.obj
 0002:00003d74       _IID_IDirectDrawPalette    10032d74     strmbase:strmiids.obj
 0002:00003d84       _IID_IDirectDrawSurface7   10032d84     strmbase:strmiids.obj
 0002:00003d94       _IID_IDirectDrawSurface4   10032d94     strmbase:strmiids.obj
 0002:00003da4       _IID_IDirectDrawSurface3   10032da4     strmbase:strmiids.obj
 0002:00003db4       _IID_IDirectDrawSurface2   10032db4     strmbase:strmiids.obj
 0002:00003dc4       _IID_IDirectDrawSurface    10032dc4     strmbase:strmiids.obj
 0002:00003dd4       _IID_IDirectDraw2          10032dd4     strmbase:strmiids.obj
 0002:00003de4       _IID_IDirectDraw           10032de4     strmbase:strmiids.obj
 0002:00003df4       _CLSID_DirectDrawClipper   10032df4     strmbase:strmiids.obj
 0002:00003e04       _CLSID_DirectDraw          10032e04     strmbase:strmiids.obj
 0002:00003e14       _IID_IMixerPinConfig2      10032e14     strmbase:strmiids.obj
 0002:00003e24       _IID_IMixerPinConfig       10032e24     strmbase:strmiids.obj
 0002:00003e34       _IID_IVPVBINotify          10032e34     strmbase:strmiids.obj
 0002:00003e44       _IID_IVPVBIConfig          10032e44     strmbase:strmiids.obj
 0002:00003e54       _IID_IVPNotify2            10032e54     strmbase:strmiids.obj
 0002:00003e64       _IID_IVPNotify             10032e64     strmbase:strmiids.obj
 0002:00003e74       _IID_IVPConfig             10032e74     strmbase:strmiids.obj
 0002:00003e84       _IID_IVPVBIObject          10032e84     strmbase:strmiids.obj
 0002:00003e94       _CLSID_VPVBIObject         10032e94     strmbase:strmiids.obj
 0002:00003ea4       _IID_IVPControl            10032ea4     strmbase:strmiids.obj
 0002:00003eb4       _IID_IVPObject             10032eb4     strmbase:strmiids.obj
 0002:00003ec4       _CLSID_VPObject            10032ec4     strmbase:strmiids.obj
 0002:00003ed4       _IID_IQualProp             10032ed4     strmbase:strmiids.obj
 0002:00003ee4       _IID_IDirectDrawVideo      10032ee4     strmbase:strmiids.obj
 0002:00003ef4       _IID_IBaseVideoMixer       10032ef4     strmbase:strmiids.obj
 0002:00003f04       _CLSID_QualityProperties   10032f04     strmbase:strmiids.obj
 0002:00003f14       _CLSID_PerformanceProperties 10032f14     strmbase:strmiids.obj
 0002:00003f24       _CLSID_DirectDrawProperties 10032f24     strmbase:strmiids.obj
 0002:00003f34       _FORMAT_DvInfo             10032f34     strmbase:strmiids.obj
 0002:00003f44       _FORMAT_MPEGStreams        10032f44     strmbase:strmiids.obj
 0002:00003f54       _FORMAT_MPEGVideo          10032f54     strmbase:strmiids.obj
 0002:00003f64       _FORMAT_WaveFormatEx       10032f64     strmbase:strmiids.obj
 0002:00003f74       _FORMAT_VideoInfo2         10032f74     strmbase:strmiids.obj
 0002:00003f84       _FORMAT_VideoInfo          10032f84     strmbase:strmiids.obj
 0002:00003f94       _FORMAT_None               10032f94     strmbase:strmiids.obj
 0002:00003fa4       _CLSID_SmartTee            10032fa4     strmbase:strmiids.obj
 0002:00003fb4       _CLSID_DVDState            10032fb4     strmbase:strmiids.obj
 0002:00003fc4       _CLSID_DVDNavigator        10032fc4     strmbase:strmiids.obj
 0002:00003fd4       _CLSID_DvdGraphBuilder     10032fd4     strmbase:strmiids.obj
 0002:00003fe4       _CLSID_MediaPropertyBag    10032fe4     strmbase:strmiids.obj
 0002:00003ff4       _CLSID_MemoryAllocator     10032ff4     strmbase:strmiids.obj
 0002:00004004       _CLSID_FilterMapper2       10033004     strmbase:strmiids.obj
 0002:00004014       _CLSID_MediaMultiplexerCategory 10033014     strmbase:strmiids.obj
 0002:00004024       _CLSID_MediaEncoderCategory 10033024     strmbase:strmiids.obj
 0002:00004034       _CLSID_DVDHWDecodersCategory 10033034     strmbase:strmiids.obj
 0002:00004044       _CLSID_ActiveMovieCategories 10033044     strmbase:strmiids.obj
 0002:00004054       _CLSID_DeviceControlCategory 10033054     strmbase:strmiids.obj
 0002:00004064       _CLSID_TransmitCategory    10033064     strmbase:strmiids.obj
 0002:00004074       _CLSID_CMidiOutClassManager 10033074     strmbase:strmiids.obj
 0002:00004084       _CLSID_MidiRendererCategory 10033084     strmbase:strmiids.obj
 0002:00004094       _CLSID_CWaveOutClassManager 10033094     strmbase:strmiids.obj
 0002:000040a4       _CLSID_AudioRendererCategory 100330a4     strmbase:strmiids.obj
 0002:000040b4       _CLSID_CWaveinClassManager 100330b4     strmbase:strmiids.obj
 0002:000040c4       _CLSID_AudioInputDeviceCategory 100330c4     strmbase:strmiids.obj
 0002:000040d4       _CLSID_CAcmCoClassManager  100330d4     strmbase:strmiids.obj
 0002:000040e4       _CLSID_AudioCompressorCategory 100330e4     strmbase:strmiids.obj
 0002:000040f4       _CLSID_CIcmCoClassManager  100330f4     strmbase:strmiids.obj
 0002:00004104       _CLSID_VideoCompressorCategory 10033104     strmbase:strmiids.obj
 0002:00004114       _CLSID_CQzFilterClassManager 10033114     strmbase:strmiids.obj
 0002:00004124       _CLSID_LegacyAmFilterCategory 10033124     strmbase:strmiids.obj
 0002:00004134       _CLSID_CVidCapClassManager 10033134     strmbase:strmiids.obj
 0002:00004144       _CLSID_VideoInputDeviceCategory 10033144     strmbase:strmiids.obj
 0002:00004154       _CLSID_CDeviceMoniker      10033154     strmbase:strmiids.obj
 0002:00004164       _CLSID_SystemDeviceEnum    10033164     strmbase:strmiids.obj
 0002:00004174       _CLSID_MJPGEnc             10033174     strmbase:strmiids.obj
 0002:00004184       _CLSID_MjpegDec            10033184     strmbase:strmiids.obj
 0002:00004194       _CLSID_WSTDecoder          10033194     strmbase:strmiids.obj
 0002:000041a4       _CLSID_VBISurfaces         100331a4     strmbase:strmiids.obj
 0002:000041b4       _CLSID_OverlayMixer        100331b4     strmbase:strmiids.obj
 0002:000041c4       _CLSID_Line21Decoder2      100331c4     strmbase:strmiids.obj
 0002:000041d4       _CLSID_Line21Decoder       100331d4     strmbase:strmiids.obj
 0002:000041e4       _CLSID_SeekingPassThru     100331e4     strmbase:strmiids.obj
 0002:000041f4       _CLSID_DVMux               100331f4     strmbase:strmiids.obj
 0002:00004204       _CLSID_DVSplitter          10033204     strmbase:strmiids.obj
 0002:00004214       _CLSID_DVVideoEnc          10033214     strmbase:strmiids.obj
 0002:00004224       _CLSID_DVVideoCodec        10033224     strmbase:strmiids.obj
 0002:00004234       _CLSID_StreamBufferComposeRecording 10033234     strmbase:strmiids.obj
 0002:00004244       _CLSID_StreamBufferRecordingAttributes 10033244     strmbase:strmiids.obj
 0002:00004254       _CLSID_Mpeg2VideoStreamAnalyzer 10033254     strmbase:strmiids.obj
 0002:00004264       _CLSID_StreamBufferConfig  10033264     strmbase:strmiids.obj
 0002:00004274       _CLSID_StreamBufferSource  10033274     strmbase:strmiids.obj
 0002:00004284       _CLSID_StreamBufferSink    10033284     strmbase:strmiids.obj
 0002:00004294       _CLSID_MMSPLITTER          10033294     strmbase:strmiids.obj
 0002:000042a4       _CLSID_MPEG2Demultiplexer  100332a4     strmbase:strmiids.obj
 0002:000042b4       _CLSID_WMAsfWriter         100332b4     strmbase:strmiids.obj
 0002:000042c4       _CLSID_WMAsfReader         100332c4     strmbase:strmiids.obj
 0002:000042d4       _CLSID_AVIMIDIRender       100332d4     strmbase:strmiids.obj
 0002:000042e4       _CLSID_AviMuxProptyPage1   100332e4     strmbase:strmiids.obj
 0002:000042f4       _CLSID_AviMuxProptyPage    100332f4     strmbase:strmiids.obj
 0002:00004304       _CLSID_AviDest             10033304     strmbase:strmiids.obj
 0002:00004314       _CLSID_FileWriter          10033314     strmbase:strmiids.obj
 0002:00004324       _CLSID_AVICo               10033324     strmbase:strmiids.obj
 0002:00004334       _CLSID_PersistMonikerPID   10033334     strmbase:strmiids.obj
 0002:00004344       _CLSID_URLReader           10033344     strmbase:strmiids.obj
 0002:00004354       _CLSID_AsyncReader         10033354     strmbase:strmiids.obj
 0002:00004364       _CLSID_ACMWrapper          10033364     strmbase:strmiids.obj
 0002:00004374       _CLSID_AVIDraw             10033374     strmbase:strmiids.obj
 0002:00004384       _CLSID_AVIDec              10033384     strmbase:strmiids.obj
 0002:00004394       _CLSID_AudioInputMixerProperties 10033394     strmbase:strmiids.obj
 0002:000043a4       _CLSID_AudioRecord         100333a4     strmbase:strmiids.obj
 0002:000043b4       _CLSID_DSoundRender        100333b4     strmbase:strmiids.obj
 0002:000043c4       _CLSID_AudioProperties     100333c4     strmbase:strmiids.obj
 0002:000043d4       _CLSID_AudioRender         100333d4     strmbase:strmiids.obj
 0002:000043e4       _CLSID_ModexRenderer       100333e4     strmbase:strmiids.obj
 0002:000043f4       _CLSID_Dither              100333f4     strmbase:strmiids.obj
 0002:00004404       _CLSID_Colour              10033404     strmbase:strmiids.obj
 0002:00004414       _CLSID_VideoRenderer       10033414     strmbase:strmiids.obj
 0002:00004424       _CLSID_AVIDoc              10033424     strmbase:strmiids.obj
 0002:00004434       _CLSID_QTDec               10033434     strmbase:strmiids.obj
 0002:00004444       _CLSID_QuickTimeParser     10033444     strmbase:strmiids.obj
 0002:00004454       _CLSID_MOVReader           10033454     strmbase:strmiids.obj
 0002:00004464       _CLSID_FGControl           10033464     strmbase:strmiids.obj
 0002:00004474       _CLSID_CaptureProperties   10033474     strmbase:strmiids.obj
 0002:00004484       _CLSID_VfwCapture          10033484     strmbase:strmiids.obj
 0002:00004494       _CLSID_AviReader           10033494     strmbase:strmiids.obj
 0002:000044a4       _CLSID_AviSplitter         100334a4     strmbase:strmiids.obj
 0002:000044b4       _CLSID_InfTee              100334b4     strmbase:strmiids.obj
 0002:000044c4       _CLSID_TextRender          100334c4     strmbase:strmiids.obj
 0002:000044d4       _CLSID_CMpegAudioCodec     100334d4     strmbase:strmiids.obj
 0002:000044e4       _CLSID_CMpegVideoCodec     100334e4     strmbase:strmiids.obj
 0002:000044f4       _CLSID_MPEG1Splitter       100334f4     strmbase:strmiids.obj
 0002:00004504       _CLSID_MPEG1PacketPlayer   10033504     strmbase:strmiids.obj
 0002:00004514       _CLSID_FileSource          10033514     strmbase:strmiids.obj
 0002:00004524       _CLSID_MPEG1Doc            10033524     strmbase:strmiids.obj
 0002:00004534       _CLSID_FilterGraphNoThread 10033534     strmbase:strmiids.obj
 0002:00004544       _CLSID_FilterGraph         10033544     strmbase:strmiids.obj
 0002:00004554       _CLSID_FilterMapper        10033554     strmbase:strmiids.obj
 0002:00004564       _CLSID_SystemClock         10033564     strmbase:strmiids.obj
 0002:00004574       _CLSID_ProtoFilterGraph    10033574     strmbase:strmiids.obj
 0002:00004584       _CLSID_CaptureGraphBuilder2 10033584     strmbase:strmiids.obj
 0002:00004594       _CLSID_CaptureGraphBuilder 10033594     strmbase:strmiids.obj
 0002:000045a4       _MEDIASUBTYPE_VPVBI        100335a4     strmbase:strmiids.obj
 0002:000045b4       _MEDIASUBTYPE_VPVideo      100335b4     strmbase:strmiids.obj
 0002:000045c4       _MEDIASUBTYPE_DssAudio     100335c4     strmbase:strmiids.obj
 0002:000045d4       _MEDIASUBTYPE_DssVideo     100335d4     strmbase:strmiids.obj
 0002:000045e4       _MEDIASUBTYPE_SPDIF_TAG_241h 100335e4     strmbase:strmiids.obj
 0002:000045f4       _MEDIASUBTYPE_RAW_SPORT    100335f4     strmbase:strmiids.obj
 0002:00004604       _MEDIASUBTYPE_DOLBY_AC3_SPDIF 10033604     strmbase:strmiids.obj
 0002:00004614       _MEDIASUBTYPE_IEEE_FLOAT   10033614     strmbase:strmiids.obj
 0002:00004624       _MEDIASUBTYPE_DRM_Audio    10033624     strmbase:strmiids.obj
 0002:00004634       _MEDIASUBTYPE_TELETEXT     10033634     strmbase:strmiids.obj
 0002:00004644       _MEDIASUBTYPE_Line21_VBIRawData 10033644     strmbase:strmiids.obj
 0002:00004654       _MEDIASUBTYPE_Line21_GOPPacket 10033654     strmbase:strmiids.obj
 0002:00004664       _MEDIASUBTYPE_Line21_BytePair 10033664     strmbase:strmiids.obj
 0002:00004674       _MEDIASUBTYPE_dvh1         10033674     strmbase:strmiids.obj
 0002:00004684       _MEDIASUBTYPE_dv50         10033684     strmbase:strmiids.obj
 0002:00004694       _MEDIASUBTYPE_dv25         10033694     strmbase:strmiids.obj
 0002:000046a4       _MEDIASUBTYPE_dvsl         100336a4     strmbase:strmiids.obj
 0002:000046b4       _MEDIASUBTYPE_dvhd         100336b4     strmbase:strmiids.obj
 0002:000046c4       _MEDIASUBTYPE_dvsd         100336c4     strmbase:strmiids.obj
 0002:000046d4       _MEDIASUBTYPE_AIFF         100336d4     strmbase:strmiids.obj
 0002:000046e4       _MEDIASUBTYPE_AU           100336e4     strmbase:strmiids.obj
 0002:000046f4       _MEDIASUBTYPE_WAVE         100336f4     strmbase:strmiids.obj
 0002:00004704       _MEDIASUBTYPE_PCM          10033704     strmbase:strmiids.obj
 0002:00004714       _MEDIASUBTYPE_PCMAudio_Obsolete 10033714     strmbase:strmiids.obj
 0002:00004724       _MEDIASUBTYPE_QTJpeg       10033724     strmbase:strmiids.obj
 0002:00004734       _MEDIASUBTYPE_QTRle        10033734     strmbase:strmiids.obj
 0002:00004744       _MEDIASUBTYPE_QTSmc        10033744     strmbase:strmiids.obj
 0002:00004754       _MEDIASUBTYPE_QTRpza       10033754     strmbase:strmiids.obj
 0002:00004764       _MEDIASUBTYPE_QTMovie      10033764     strmbase:strmiids.obj
 0002:00004774       _MEDIASUBTYPE_Asf          10033774     strmbase:strmiids.obj
 0002:00004784       _MEDIASUBTYPE_Avi          10033784     strmbase:strmiids.obj
 0002:00004794       _MEDIASUBTYPE_MPEG1Audio   10033794     strmbase:strmiids.obj
 0002:000047a4       _MEDIASUBTYPE_MPEG1Video   100337a4     strmbase:strmiids.obj
 0002:000047b4       _MEDIASUBTYPE_MPEG1VideoCD 100337b4     strmbase:strmiids.obj
 0002:000047c4       _MEDIASUBTYPE_MPEG1System  100337c4     strmbase:strmiids.obj
 0002:000047d4       _MEDIATYPE_MPEG1SystemStream 100337d4     strmbase:strmiids.obj
 0002:000047e4       _MEDIASUBTYPE_MPEG1AudioPayload 100337e4     strmbase:strmiids.obj
 0002:000047f4       _MEDIASUBTYPE_MPEG1Payload 100337f4     strmbase:strmiids.obj
 0002:00004804       _MEDIASUBTYPE_MPEG1Packet  10033804     strmbase:strmiids.obj
 0002:00004814       _MEDIASUBTYPE_Overlay      10033814     strmbase:strmiids.obj
 0002:00004824       _MEDIASUBTYPE_S342         10033824     strmbase:strmiids.obj
 0002:00004834       _MEDIASUBTYPE_S340         10033834     strmbase:strmiids.obj
 0002:00004844       _MEDIASUBTYPE_IMC4         10033844     strmbase:strmiids.obj
 0002:00004854       _MEDIASUBTYPE_IMC3         10033854     strmbase:strmiids.obj
 0002:00004864       _MEDIASUBTYPE_IMC2         10033864     strmbase:strmiids.obj
 0002:00004874       _MEDIASUBTYPE_IMC1         10033874     strmbase:strmiids.obj
 0002:00004884       _MEDIASUBTYPE_NV12         10033884     strmbase:strmiids.obj
 0002:00004894       _MEDIASUBTYPE_YV12         10033894     strmbase:strmiids.obj
 0002:000048a4       _MEDIASUBTYPE_ARGB1555_D3D_DX9_RT 100338a4     strmbase:strmiids.obj
 0002:000048b4       _MEDIASUBTYPE_ARGB4444_D3D_DX9_RT 100338b4     strmbase:strmiids.obj
 0002:000048c4       _MEDIASUBTYPE_ARGB32_D3D_DX9_RT 100338c4     strmbase:strmiids.obj
 0002:000048d4       _MEDIASUBTYPE_RGB16_D3D_DX9_RT 100338d4     strmbase:strmiids.obj
 0002:000048e4       _MEDIASUBTYPE_RGB32_D3D_DX9_RT 100338e4     strmbase:strmiids.obj
 0002:000048f4       _MEDIASUBTYPE_ARGB1555_D3D_DX7_RT 100338f4     strmbase:strmiids.obj
 0002:00004904       _MEDIASUBTYPE_ARGB4444_D3D_DX7_RT 10033904     strmbase:strmiids.obj
 0002:00004914       _MEDIASUBTYPE_ARGB32_D3D_DX7_RT 10033914     strmbase:strmiids.obj
 0002:00004924       _MEDIASUBTYPE_RGB16_D3D_DX7_RT 10033924     strmbase:strmiids.obj
 0002:00004934       _MEDIASUBTYPE_RGB32_D3D_DX7_RT 10033934     strmbase:strmiids.obj
 0002:00004944       _MEDIASUBTYPE_IA44         10033944     strmbase:strmiids.obj
 0002:00004954       _MEDIASUBTYPE_AI44         10033954     strmbase:strmiids.obj
 0002:00004964       _MEDIASUBTYPE_AYUV         10033964     strmbase:strmiids.obj
 0002:00004974       _MEDIASUBTYPE_A2B10G10R10  10033974     strmbase:strmiids.obj
 0002:00004984       _MEDIASUBTYPE_A2R10G10B10  10033984     strmbase:strmiids.obj
 0002:00004994       _MEDIASUBTYPE_ARGB32       10033994     strmbase:strmiids.obj
 0002:000049a4       _MEDIASUBTYPE_ARGB4444     100339a4     strmbase:strmiids.obj
 0002:000049b4       _MEDIASUBTYPE_ARGB1555     100339b4     strmbase:strmiids.obj
 0002:000049c4       _MEDIASUBTYPE_RGB32        100339c4     strmbase:strmiids.obj
 0002:000049d4       _MEDIASUBTYPE_RGB24        100339d4     strmbase:strmiids.obj
 0002:000049e4       _MEDIASUBTYPE_RGB555       100339e4     strmbase:strmiids.obj
 0002:000049f4       _MEDIASUBTYPE_RGB565       100339f4     strmbase:strmiids.obj
 0002:00004a04       _MEDIASUBTYPE_RGB8         10033a04     strmbase:strmiids.obj
 0002:00004a14       _MEDIASUBTYPE_RGB4         10033a14     strmbase:strmiids.obj
 0002:00004a24       _MEDIASUBTYPE_RGB1         10033a24     strmbase:strmiids.obj
 0002:00004a34       _MEDIASUBTYPE_MDVF         10033a34     strmbase:strmiids.obj
 0002:00004a44       _MEDIASUBTYPE_DVSD         10033a44     strmbase:strmiids.obj
 0002:00004a54       _MEDIASUBTYPE_DVCS         10033a54     strmbase:strmiids.obj
 0002:00004a64       _MEDIASUBTYPE_Plum         10033a64     strmbase:strmiids.obj
 0002:00004a74       _MEDIASUBTYPE_IJPG         10033a74     strmbase:strmiids.obj
 0002:00004a84       _MEDIASUBTYPE_CFCC         10033a84     strmbase:strmiids.obj
 0002:00004a94       _MEDIASUBTYPE_WAKE         10033a94     strmbase:strmiids.obj
 0002:00004aa4       _MEDIASUBTYPE_TVMJ         10033aa4     strmbase:strmiids.obj
 0002:00004ab4       _MEDIASUBTYPE_MJPG         10033ab4     strmbase:strmiids.obj
 0002:00004ac4       _MEDIASUBTYPE_CPLA         10033ac4     strmbase:strmiids.obj
 0002:00004ad4       _MEDIASUBTYPE_IF09         10033ad4     strmbase:strmiids.obj
 0002:00004ae4       _MEDIASUBTYPE_CLJR         10033ae4     strmbase:strmiids.obj
 0002:00004af4       _MEDIASUBTYPE_Y211         10033af4     strmbase:strmiids.obj
 0002:00004b04       _MEDIASUBTYPE_UYVY         10033b04     strmbase:strmiids.obj
 0002:00004b14       _MEDIASUBTYPE_YVYU         10033b14     strmbase:strmiids.obj
 0002:00004b24       _MEDIASUBTYPE_YUY2         10033b24     strmbase:strmiids.obj
 0002:00004b34       _MEDIASUBTYPE_Y41P         10033b34     strmbase:strmiids.obj
 0002:00004b44       _MEDIASUBTYPE_Y411         10033b44     strmbase:strmiids.obj
 0002:00004b54       _MEDIASUBTYPE_YVU9         10033b54     strmbase:strmiids.obj
 0002:00004b64       _MEDIASUBTYPE_IYUV         10033b64     strmbase:strmiids.obj
 0002:00004b74       _MEDIASUBTYPE_YUYV         10033b74     strmbase:strmiids.obj
 0002:00004b84       _MEDIASUBTYPE_CLPL         10033b84     strmbase:strmiids.obj
 0002:00004b94       _MEDIATYPE_URL_STREAM      10033b94     strmbase:strmiids.obj
 0002:00004ba4       _MEDIATYPE_LMRT            10033ba4     strmbase:strmiids.obj
 0002:00004bb4       _MEDIATYPE_Timecode        10033bb4     strmbase:strmiids.obj
 0002:00004bc4       _MEDIATYPE_VBI             10033bc4     strmbase:strmiids.obj
 0002:00004bd4       _MEDIATYPE_AUXLine21Data   10033bd4     strmbase:strmiids.obj
 0002:00004be4       _MEDIATYPE_ScriptCommand   10033be4     strmbase:strmiids.obj
 0002:00004bf4       _MEDIATYPE_File            10033bf4     strmbase:strmiids.obj
 0002:00004c04       _MEDIATYPE_Interleaved     10033c04     strmbase:strmiids.obj
 0002:00004c14       _MEDIATYPE_Stream          10033c14     strmbase:strmiids.obj
 0002:00004c24       _MEDIATYPE_Midi            10033c24     strmbase:strmiids.obj
 0002:00004c34       _MEDIATYPE_Text            10033c34     strmbase:strmiids.obj
 0002:00004c44       _MEDIATYPE_Audio           10033c44     strmbase:strmiids.obj
 0002:00004c54       _MEDIATYPE_Video           10033c54     strmbase:strmiids.obj
 0002:00004c64       _MEDIASUBTYPE_None         10033c64     strmbase:strmiids.obj
 0002:00004c78       ?bits555@@3QBKB            10033c78     strmbase:amvideo.obj
 0002:00004c84       ?bits565@@3QBKB            10033c84     strmbase:amvideo.obj
 0002:00004c90       ?bits888@@3QBKB            10033c90     strmbase:amvideo.obj
 0002:00004d40       _IID_IQuickActivate        10033d40     uuid:ocidl_i.obj
 0002:00004d50       _IID_IAdviseSinkEx         10033d50     uuid:ocidl_i.obj
 0002:00004d60       _IID_IPersistPropertyBag2  10033d60     uuid:ocidl_i.obj
 0002:00004d70       _IID_IPropertyBag2         10033d70     uuid:ocidl_i.obj
 0002:00004d80       _IID_IPerPropertyBrowsing  10033d80     uuid:ocidl_i.obj
 0002:00004d90       _IID_IObjectWithSite       10033d90     uuid:ocidl_i.obj
 0002:00004da0       _IID_IPointerInactive      10033da0     uuid:ocidl_i.obj
 0002:00004db0       _IID_IOleUndoManager       10033db0     uuid:ocidl_i.obj
 0002:00004dc0       _IID_IEnumOleUndoUnits     10033dc0     uuid:ocidl_i.obj
 0002:00004dd0       _IID_IOleParentUndoUnit    10033dd0     uuid:ocidl_i.obj
 0002:00004de0       _IID_IOleUndoUnit          10033de0     uuid:ocidl_i.obj
 0002:00004df0       _IID_IViewObjectEx         10033df0     uuid:ocidl_i.obj
 0002:00004e00       _IID_IOleInPlaceSiteWindowless 10033e00     uuid:ocidl_i.obj
 0002:00004e10       _IID_IOleInPlaceSiteEx     10033e10     uuid:ocidl_i.obj
 0002:00004e20       _IID_IOleInPlaceObjectWindowless 10033e20     uuid:ocidl_i.obj
 0002:00004e30       _IID_IPictureDisp          10033e30     uuid:ocidl_i.obj
 0002:00004e40       _IID_IFontDisp             10033e40     uuid:ocidl_i.obj
 0002:00004e50       _IID_IFontEventsDisp       10033e50     uuid:ocidl_i.obj
 0002:00004e60       _IID_IPicture              10033e60     uuid:ocidl_i.obj
 0002:00004e70       _IID_IFont                 10033e70     uuid:ocidl_i.obj
 0002:00004e80       _IID_ISimpleFrameSite      10033e80     uuid:ocidl_i.obj
 0002:00004e90       _IID_IPersistPropertyBag   10033e90     uuid:ocidl_i.obj
 0002:00004ea0       _IID_IPersistStreamInit    10033ea0     uuid:ocidl_i.obj
 0002:00004eb0       _IID_IPersistMemory        10033eb0     uuid:ocidl_i.obj
 0002:00004ec0       _IID_ISpecifyPropertyPages 10033ec0     uuid:ocidl_i.obj
 0002:00004ed0       _IID_IPropertyNotifySink   10033ed0     uuid:ocidl_i.obj
 0002:00004ee0       _IID_IPropertyPageSite     10033ee0     uuid:ocidl_i.obj
 0002:00004ef0       _IID_IPropertyPage2        10033ef0     uuid:ocidl_i.obj
 0002:00004f00       _IID_IPropertyPage         10033f00     uuid:ocidl_i.obj
 0002:00004f10       _IID_IOleControlSite       10033f10     uuid:ocidl_i.obj
 0002:00004f20       _IID_IOleControl           10033f20     uuid:ocidl_i.obj
 0002:00004f30       _IID_IProvideMultipleClassInfo 10033f30     uuid:ocidl_i.obj
 0002:00004f40       _IID_IProvideClassInfo2    10033f40     uuid:ocidl_i.obj
 0002:00004f50       _IID_IProvideClassInfo     10033f50     uuid:ocidl_i.obj
 0002:00004f60       _IID_IClassFactory2        10033f60     uuid:ocidl_i.obj
 0002:00004f70       _IID_IConnectionPointContainer 10033f70     uuid:ocidl_i.obj
 0002:00004f80       _IID_IEnumConnectionPoints 10033f80     uuid:ocidl_i.obj
 0002:00004f90       _IID_IConnectionPoint      10033f90     uuid:ocidl_i.obj
 0002:00004fa0       _IID_IEnumConnections      10033fa0     uuid:ocidl_i.obj
 0002:00004fb0       _IID_IClassFactory         10033fb0     uuid:unknwn_i.obj
 0002:00004fc0       _IID_AsyncIUnknown         10033fc0     uuid:unknwn_i.obj
 0002:00004fd0       _IID_IUnknown              10033fd0     uuid:unknwn_i.obj
 0002:00004fe0       _GUID_DEVINTERFACE_SERENUM_BUS_ENUMERATOR 10033fe0     uuid:cguid_i.obj
 0002:00004ff0       _GUID_DEVINTERFACE_COMPORT 10033ff0     uuid:cguid_i.obj
 0002:00005000       _GUID_DEVINTERFACE_STORAGEPORT 10034000     uuid:cguid_i.obj
 0002:00005010       _GUID_DEVINTERFACE_CDCHANGER 10034010     uuid:cguid_i.obj
 0002:00005020       _GUID_DEVINTERFACE_FLOPPY  10034020     uuid:cguid_i.obj
 0002:00005030       _GUID_DEVINTERFACE_MEDIUMCHANGER 10034030     uuid:cguid_i.obj
 0002:00005040       _GUID_DEVINTERFACE_VOLUME  10034040     uuid:cguid_i.obj
 0002:00005050       _GUID_DEVINTERFACE_WRITEONCEDISK 10034050     uuid:cguid_i.obj
 0002:00005060       _GUID_DEVINTERFACE_TAPE    10034060     uuid:cguid_i.obj
 0002:00005070       _GUID_DEVINTERFACE_PARTITION 10034070     uuid:cguid_i.obj
 0002:00005080       _GUID_DEVINTERFACE_CDROM   10034080     uuid:cguid_i.obj
 0002:00005090       _GUID_DEVINTERFACE_DISK    10034090     uuid:cguid_i.obj
 0002:000050a0       _GUID_DEVCLASS_FSFILTER_INFRASTRUCTURE 100340a0     uuid:cguid_i.obj
 0002:000050b0       _GUID_DEVCLASS_FSFILTER_SYSTEM 100340b0     uuid:cguid_i.obj
 0002:000050c0       _GUID_DEVCLASS_FSFILTER_COPYPROTECTION 100340c0     uuid:cguid_i.obj
 0002:000050d0       _GUID_DEVCLASS_FSFILTER_SECURITYENHANCER 100340d0     uuid:cguid_i.obj
 0002:000050e0       _GUID_DEVCLASS_FSFILTER_OPENFILEBACKUP 100340e0     uuid:cguid_i.obj
 0002:000050f0       _GUID_DEVCLASS_FSFILTER_PHYSICALQUOTAMANAGEMENT 100340f0     uuid:cguid_i.obj
 0002:00005100       _GUID_DEVCLASS_FSFILTER_ENCRYPTION 10034100     uuid:cguid_i.obj
 0002:00005110       _GUID_DEVCLASS_FSFILTER_COMPRESSION 10034110     uuid:cguid_i.obj
 0002:00005120       _GUID_DEVCLASS_FSFILTER_HSM 10034120     uuid:cguid_i.obj
 0002:00005130       _GUID_DEVCLASS_FSFILTER_CFSMETADATASERVER 10034130     uuid:cguid_i.obj
 0002:00005140       _GUID_DEVCLASS_FSFILTER_SYSTEMRECOVERY 10034140     uuid:cguid_i.obj
 0002:00005150       _GUID_DEVCLASS_FSFILTER_QUOTAMANAGEMENT 10034150     uuid:cguid_i.obj
 0002:00005160       _GUID_DEVCLASS_FSFILTER_CONTENTSCREENER 10034160     uuid:cguid_i.obj
 0002:00005170       _GUID_DEVCLASS_FSFILTER_CONTINUOUSBACKUP 10034170     uuid:cguid_i.obj
 0002:00005180       _GUID_DEVCLASS_FSFILTER_REPLICATION 10034180     uuid:cguid_i.obj
 0002:00005190       _GUID_DEVCLASS_FSFILTER_ANTIVIRUS 10034190     uuid:cguid_i.obj
 0002:000051a0       _GUID_DEVCLASS_FSFILTER_UNDELETE 100341a0     uuid:cguid_i.obj
 0002:000051b0       _GUID_DEVCLASS_FSFILTER_ACTIVITYMONITOR 100341b0     uuid:cguid_i.obj
 0002:000051c0       _GUID_DEVCLASS_WCEUSBS     100341c0     uuid:cguid_i.obj
 0002:000051d0       _GUID_DEVCLASS_VOLUMESNAPSHOT 100341d0     uuid:cguid_i.obj
 0002:000051e0       _GUID_DEVCLASS_VOLUME      100341e0     uuid:cguid_i.obj
 0002:000051f0       _GUID_DEVCLASS_USB         100341f0     uuid:cguid_i.obj
 0002:00005200       _GUID_DEVCLASS_UNKNOWN     10034200     uuid:cguid_i.obj
 0002:00005210       _GUID_DEVCLASS_TAPEDRIVE   10034210     uuid:cguid_i.obj
 0002:00005220       _GUID_DEVCLASS_SYSTEM      10034220     uuid:cguid_i.obj
 0002:00005230       _GUID_DEVCLASS_SOUND       10034230     uuid:cguid_i.obj
 0002:00005240       _GUID_DEVCLASS_SMARTCARDREADER 10034240     uuid:cguid_i.obj
 0002:00005250       _GUID_DEVCLASS_SECURITYACCELERATOR 10034250     uuid:cguid_i.obj
 0002:00005260       _GUID_DEVCLASS_SCSIADAPTER 10034260     uuid:cguid_i.obj
 0002:00005270       _GUID_DEVCLASS_SBP2        10034270     uuid:cguid_i.obj
 0002:00005280       _GUID_DEVCLASS_PROCESSOR   10034280     uuid:cguid_i.obj
 0002:00005290       _GUID_DEVCLASS_PRINTERUPGRADE 10034290     uuid:cguid_i.obj
 0002:000052a0       _GUID_DEVCLASS_PRINTER     100342a0     uuid:cguid_i.obj
 0002:000052b0       _GUID_DEVCLASS_PORTS       100342b0     uuid:cguid_i.obj
 0002:000052c0       _GUID_DEVCLASS_PNPPRINTERS 100342c0     uuid:cguid_i.obj
 0002:000052d0       _GUID_DEVCLASS_PCMCIA      100342d0     uuid:cguid_i.obj
 0002:000052e0       _GUID_DEVCLASS_NODRIVER    100342e0     uuid:cguid_i.obj
 0002:000052f0       _GUID_DEVCLASS_NETTRANS    100342f0     uuid:cguid_i.obj
 0002:00005300       _GUID_DEVCLASS_NETSERVICE  10034300     uuid:cguid_i.obj
 0002:00005310       _GUID_DEVCLASS_NETCLIENT   10034310     uuid:cguid_i.obj
 0002:00005320       _GUID_DEVCLASS_NET         10034320     uuid:cguid_i.obj
 0002:00005330       _GUID_DEVCLASS_MULTIPORTSERIAL 10034330     uuid:cguid_i.obj
 0002:00005340       _GUID_DEVCLASS_MULTIFUNCTION 10034340     uuid:cguid_i.obj
 0002:00005350       _GUID_DEVCLASS_MTD         10034350     uuid:cguid_i.obj
 0002:00005360       _GUID_DEVCLASS_MOUSE       10034360     uuid:cguid_i.obj
 0002:00005370       _GUID_DEVCLASS_MONITOR     10034370     uuid:cguid_i.obj
 0002:00005380       _GUID_DEVCLASS_MODEM       10034380     uuid:cguid_i.obj
 0002:00005390       _GUID_DEVCLASS_MEDIUM_CHANGER 10034390     uuid:cguid_i.obj
 0002:000053a0       _GUID_DEVCLASS_MEDIA       100343a0     uuid:cguid_i.obj
 0002:000053b0       _GUID_DEVCLASS_LEGACYDRIVER 100343b0     uuid:cguid_i.obj
 0002:000053c0       _GUID_DEVCLASS_KEYBOARD    100343c0     uuid:cguid_i.obj
 0002:000053d0       _GUID_DEVCLASS_INFRARED    100343d0     uuid:cguid_i.obj
 0002:000053e0       _GUID_DEVCLASS_INFINIBAND  100343e0     uuid:cguid_i.obj
 0002:000053f0       _GUID_DEVCLASS_IMAGE       100343f0     uuid:cguid_i.obj
 0002:00005400       _GUID_DEVCLASS_HIDCLASS    10034400     uuid:cguid_i.obj
 0002:00005410       _GUID_DEVCLASS_HDC         10034410     uuid:cguid_i.obj
 0002:00005420       _GUID_DEVCLASS_GPS         10034420     uuid:cguid_i.obj
 0002:00005430       _GUID_DEVCLASS_FLOPPYDISK  10034430     uuid:cguid_i.obj
 0002:00005440       _GUID_DEVCLASS_FDC         10034440     uuid:cguid_i.obj
 0002:00005450       _GUID_DEVCLASS_ENUM1394    10034450     uuid:cguid_i.obj
 0002:00005460       _GUID_DEVCLASS_DOT4PRINT   10034460     uuid:cguid_i.obj
 0002:00005470       _GUID_DEVCLASS_DOT4        10034470     uuid:cguid_i.obj
 0002:00005480       _GUID_DEVCLASS_DISPLAY     10034480     uuid:cguid_i.obj
 0002:00005490       _GUID_DEVCLASS_DISKDRIVE   10034490     uuid:cguid_i.obj
 0002:000054a0       _GUID_DEVCLASS_DECODER     100344a0     uuid:cguid_i.obj
 0002:000054b0       _GUID_DEVCLASS_COMPUTER    100344b0     uuid:cguid_i.obj
 0002:000054c0       _GUID_DEVCLASS_CDROM       100344c0     uuid:cguid_i.obj
 0002:000054d0       _GUID_DEVCLASS_BLUETOOTH   100344d0     uuid:cguid_i.obj
 0002:000054e0       _GUID_DEVCLASS_BIOMETRIC   100344e0     uuid:cguid_i.obj
 0002:000054f0       _GUID_DEVCLASS_BATTERY     100344f0     uuid:cguid_i.obj
 0002:00005500       _GUID_DEVCLASS_AVC         10034500     uuid:cguid_i.obj
 0002:00005510       _GUID_DEVCLASS_APMSUPPORT  10034510     uuid:cguid_i.obj
 0002:00005520       _GUID_DEVCLASS_ADAPTER     10034520     uuid:cguid_i.obj
 0002:00005530       _GUID_DEVCLASS_61883       10034530     uuid:cguid_i.obj
 0002:00005540       _GUID_DEVCLASS_1394DEBUG   10034540     uuid:cguid_i.obj
 0002:00005550       _GUID_DEVCLASS_1394        10034550     uuid:cguid_i.obj
 0002:00005560       _CLSID_ThumbnailUpdater    10034560     uuid:cguid_i.obj
 0002:00005570       _CLSID_ThumbnailFCNHandler 10034570     uuid:cguid_i.obj
 0002:00005580       _CLSID_GblComponentCategoriesMgr 10034580     uuid:cguid_i.obj
 0002:00005590       _IID_IBoundObjectSite      10034590     uuid:cguid_i.obj
 0002:000055a0       _IID_IBoundObject          100345a0     uuid:cguid_i.obj
 0002:000055b0       __DBCIDGUID                100345b0     uuid:cguid_i.obj
 0002:000055c0       __DBBMKGUID                100345c0     uuid:cguid_i.obj
 0002:000055d0       __GUID_NAMEONLY            100345d0     uuid:cguid_i.obj
 0002:000055e0       _IID_IEntryID              100345e0     uuid:cguid_i.obj
 0002:000055f0       _IID_ICursorFind           100345f0     uuid:cguid_i.obj
 0002:00005600       _IID_INotifyDBEvents       10034600     uuid:cguid_i.obj
 0002:00005610       _IID_ICursorUpdateARow     10034610     uuid:cguid_i.obj
 0002:00005620       _IID_ICursorScroll         10034620     uuid:cguid_i.obj
 0002:00005630       _IID_ICursorMove           10034630     uuid:cguid_i.obj
 0002:00005640       _IID_ICursor               10034640     uuid:cguid_i.obj
 0002:00005650       _IID_StdOle                10034650     uuid:cguid_i.obj
 0002:00005660       _GUID_HANDLE               10034660     uuid:cguid_i.obj
 0002:00005670       _GUID_FONTSTRIKETHROUGH    10034670     uuid:cguid_i.obj
 0002:00005680       _GUID_FONTUNDERSCORE       10034680     uuid:cguid_i.obj
 0002:00005690       _GUID_FONTITALIC           10034690     uuid:cguid_i.obj
 0002:000056a0       _GUID_FONTBOLD             100346a0     uuid:cguid_i.obj
 0002:000056b0       _GUID_FONTSIZE             100346b0     uuid:cguid_i.obj
 0002:000056c0       _GUID_FONTNAME             100346c0     uuid:cguid_i.obj
 0002:000056d0       _GUID_CHECKVALUEEXCLUSIVE  100346d0     uuid:cguid_i.obj
 0002:000056e0       _GUID_OPTIONVALUEEXCLUSIVE 100346e0     uuid:cguid_i.obj
 0002:000056f0       _GUID_TRISTATE             100346f0     uuid:cguid_i.obj
 0002:00005700       _GUID_YSIZE                10034700     uuid:cguid_i.obj
 0002:00005710       _GUID_XSIZE                10034710     uuid:cguid_i.obj
 0002:00005720       _GUID_YPOS                 10034720     uuid:cguid_i.obj
 0002:00005730       _GUID_XPOS                 10034730     uuid:cguid_i.obj
 0002:00005740       _GUID_YSIZEPIXEL           10034740     uuid:cguid_i.obj
 0002:00005750       _GUID_XSIZEPIXEL           10034750     uuid:cguid_i.obj
 0002:00005760       _GUID_YPOSPIXEL            10034760     uuid:cguid_i.obj
 0002:00005770       _GUID_XPOSPIXEL            10034770     uuid:cguid_i.obj
 0002:00005780       _GUID_COLOR                10034780     uuid:cguid_i.obj
 0002:00005790       _GUID_HIMETRIC             10034790     uuid:cguid_i.obj
 0002:000057a0       _CLSID_StdPicture          100347a0     uuid:cguid_i.obj
 0002:000057b0       _CLSID_StdFont             100347b0     uuid:cguid_i.obj
 0002:000057c0       _CLSID_ConvertVBX          100347c0     uuid:cguid_i.obj
 0002:000057d0       _CLSID_PersistPropset      100347d0     uuid:cguid_i.obj
 0002:000057e0       _CLSID_StockPicturePage    100347e0     uuid:cguid_i.obj
 0002:000057f0       _CLSID_StockColorPage      100347f0     uuid:cguid_i.obj
 0002:00005800       _CLSID_StockFontPage       10034800     uuid:cguid_i.obj
 0002:00005810       _CLSID_CPicturePropPage    10034810     uuid:cguid_i.obj
 0002:00005820       _CLSID_CColorPropPage      10034820     uuid:cguid_i.obj
 0002:00005830       _CLSID_CFontPropPage       10034830     uuid:cguid_i.obj
 0002:00005840       _IID_IPropertyFrame        10034840     uuid:cguid_i.obj
 0002:00005850       _CLSID_AddrControl         10034850     uuid:cguid_i.obj
 0002:00005860       _CLSID_CurrentUserClasses  10034860     uuid:cguid_i.obj
 0002:00005870       _CLSID_LocalMachineClasses 10034870     uuid:cguid_i.obj
 0002:00005880       _CLSID_AllClasses          10034880     uuid:cguid_i.obj
 0002:00005890       _IID_IRichEditOleCallback  10034890     uuid:cguid_i.obj
 0002:000058a0       _IID_IRichEditOle          100348a0     uuid:cguid_i.obj
 0002:000058b0       _CLSID_RemoteUnknownPSFactory 100348b0     uuid:cguid_i.obj
 0002:000058c0       _CLSID_InProcFreeMarshaler 100348c0     uuid:cguid_i.obj
 0002:000058d0       _CLSID_StdAsyncActManager  100348d0     uuid:cguid_i.obj
 0002:000058e0       _CLSID_ComBinding          100348e0     uuid:cguid_i.obj
 0002:000058f0       _CLSID_SynchronizeContainer 100348f0     uuid:cguid_i.obj
 0002:00005900       _CLSID_StdEvent            10034900     uuid:cguid_i.obj
 0002:00005910       _CLSID_ManualResetEvent    10034910     uuid:cguid_i.obj
 0002:00005920       _CLSID_StdGlobalInterfaceTable 10034920     uuid:cguid_i.obj
 0002:00005930       _CLSID_DCOMAccessControl   10034930     uuid:cguid_i.obj
 0002:00005940       _CLSID_Picture_Dib         10034940     uuid:cguid_i.obj
 0002:00005950       _CLSID_Picture_EnhMetafile 10034950     uuid:cguid_i.obj
 0002:00005960       _CLSID_Picture_Metafile    10034960     uuid:cguid_i.obj
 0002:00005970       _CLSID_StaticDib           10034970     uuid:cguid_i.obj
 0002:00005980       _CLSID_StaticMetafile      10034980     uuid:cguid_i.obj
 0002:00005990       _CLSID_PSEnumerators       10034990     uuid:cguid_i.obj
 0002:000059a0       _CLSID_PSBindCtx           100349a0     uuid:cguid_i.obj
 0002:000059b0       _CLSID_PSDragDrop          100349b0     uuid:cguid_i.obj
 0002:000059c0       _CLSID_PSInPlaceFrame      100349c0     uuid:cguid_i.obj
 0002:000059d0       _CLSID_PSInPlaceActive     100349d0     uuid:cguid_i.obj
 0002:000059e0       _CLSID_PSClassObject       100349e0     uuid:cguid_i.obj
 0002:000059f0       _CLSID_PSClientSite        100349f0     uuid:cguid_i.obj
 0002:00005a00       _CLSID_PSGenObject         10034a00     uuid:cguid_i.obj
 0002:00005a10       _IID_IDebugStream          10034a10     uuid:cguid_i.obj
 0002:00005a20       _IID_IDebug                10034a20     uuid:cguid_i.obj
 0002:00005a30       _IID_IOlePresObj           10034a30     uuid:cguid_i.obj
 0002:00005a40       _IID_IOleManager           10034a40     uuid:cguid_i.obj
 0002:00005a50       _IID_IEnumCallback         10034a50     uuid:cguid_i.obj
 0002:00005a60       _IID_IEnumHolder           10034a60     uuid:cguid_i.obj
 0002:00005a70       _IID_IEnumGeneric          10034a70     uuid:cguid_i.obj
 0002:00005a80       _IID_IProxy                10034a80     uuid:cguid_i.obj
 0002:00005a90       _IID_IStub                 10034a90     uuid:cguid_i.obj
 0002:00005aa0       _CLSID_StdMarshal          10034aa0     uuid:cguid_i.obj
 0002:00005ab0       _IID_IDfReserved3          10034ab0     uuid:cguid_i.obj
 0002:00005ac0       _IID_IDfReserved2          10034ac0     uuid:cguid_i.obj
 0002:00005ad0       _IID_IDfReserved1          10034ad0     uuid:cguid_i.obj
 0002:00005ae0       _IID_IInternalMoniker      10034ae0     uuid:cguid_i.obj
 0002:00005af0       _IID_IPSFactory            10034af0     uuid:cguid_i.obj
 0002:00005b00       _IID_IProxyManager         10034b00     uuid:cguid_i.obj
 0002:00005b10       _IID_IRpcProxy             10034b10     uuid:cguid_i.obj
 0002:00005b20       _IID_IStubManager          10034b20     uuid:cguid_i.obj
 0002:00005b30       _IID_IRpcStub              10034b30     uuid:cguid_i.obj
 0002:00005b40       _IID_IRpcChannel           10034b40     uuid:cguid_i.obj
 0002:00005b50       _CATID_MARSHALER           10034b50     uuid:cguid_i.obj
 0002:00005b60       _GUID_NULL                 10034b60     uuid:cguid_i.obj
 0002:00005b70       _IID_IInitializeSpy        10034b70     uuid:objidl_i.obj
 0002:00005b80       _IID_IProcessInitControl   10034b80     uuid:objidl_i.obj
 0002:00005b90       _IID_IComThreadingInfo     10034b90     uuid:objidl_i.obj
 0002:00005ba0       _IID_ISurrogateService     10034ba0     uuid:objidl_i.obj
 0002:00005bb0       _IID_IProcessLock          10034bb0     uuid:objidl_i.obj
 0002:00005bc0       _IID_IObjContext           10034bc0     uuid:objidl_i.obj
 0002:00005bd0       _IID_IContext              10034bd0     uuid:objidl_i.obj
 0002:00005be0       _IID_IEnumContextProps     10034be0     uuid:objidl_i.obj
 0002:00005bf0       _IID_IDummyHICONIncluder   10034bf0     uuid:objidl_i.obj
 0002:00005c00       _IID_IThumbnailExtractor   10034c00     uuid:objidl_i.obj
 0002:00005c10       _IID_AsyncIPipeDouble      10034c10     uuid:objidl_i.obj
 0002:00005c20       _IID_IPipeDouble           10034c20     uuid:objidl_i.obj
 0002:00005c30       _IID_AsyncIPipeLong        10034c30     uuid:objidl_i.obj
 0002:00005c40       _IID_IPipeLong             10034c40     uuid:objidl_i.obj
 0002:00005c50       _IID_AsyncIPipeByte        10034c50     uuid:objidl_i.obj
 0002:00005c60       _IID_IPipeByte             10034c60     uuid:objidl_i.obj
 0002:00005c70       _IID_IAddrExclusionControl 10034c70     uuid:objidl_i.obj
 0002:00005c80       _IID_IAddrTrackingControl  10034c80     uuid:objidl_i.obj
 0002:00005c90       _IID_IForegroundTransfer   10034c90     uuid:objidl_i.obj
 0002:00005ca0       _IID_IUrlMon               10034ca0     uuid:objidl_i.obj
 0002:00005cb0       _IID_IWaitMultiple         10034cb0     uuid:objidl_i.obj
 0002:00005cc0       _IID_IReleaseMarshalBuffers 10034cc0     uuid:objidl_i.obj
 0002:00005cd0       _IID_IRpcHelper            10034cd0     uuid:objidl_i.obj
 0002:00005ce0       _IID_ICallFactory          10034ce0     uuid:objidl_i.obj
 0002:00005cf0       _IID_IAsyncManager         10034cf0     uuid:objidl_i.obj
 0002:00005d00       _IID_ICancelMethodCalls    10034d00     uuid:objidl_i.obj
 0002:00005d10       _IID_ISynchronizeMutex     10034d10     uuid:objidl_i.obj
 0002:00005d20       _IID_ISynchronizeContainer 10034d20     uuid:objidl_i.obj
 0002:00005d30       _IID_ISynchronizeEvent     10034d30     uuid:objidl_i.obj
 0002:00005d40       _IID_ISynchronizeHandle    10034d40     uuid:objidl_i.obj
 0002:00005d50       _IID_ISynchronize          10034d50     uuid:objidl_i.obj
 0002:00005d60       _IID_IDirectWriterLock     10034d60     uuid:objidl_i.obj
 0002:00005d70       _IID_IGlobalInterfaceTable 10034d70     uuid:objidl_i.obj
 0002:00005d80       _IID_ISurrogate            10034d80     uuid:objidl_i.obj
 0002:00005d90       _IID_IOplockStorage        10034d90     uuid:objidl_i.obj
 0002:00005da0       _IID_ITimeAndNoticeControl 10034da0     uuid:objidl_i.obj
 0002:00005db0       _IID_IBlockingLock         10034db0     uuid:objidl_i.obj
 0002:00005dc0       _IID_ILayoutStorage        10034dc0     uuid:objidl_i.obj
 0002:00005dd0       _IID_IProgressNotify       10034dd0     uuid:objidl_i.obj
 0002:00005de0       _IID_IFillLockBytes        10034de0     uuid:objidl_i.obj
 0002:00005df0       _IID_IRpcOptions           10034df0     uuid:objidl_i.obj
 0002:00005e00       _IID_IClassActivator       10034e00     uuid:objidl_i.obj
 0002:00005e10       _IID_IServerSecurity       10034e10     uuid:objidl_i.obj
 0002:00005e20       _IID_IClientSecurity       10034e20     uuid:objidl_i.obj
 0002:00005e30       _IID_IChannelHook          10034e30     uuid:objidl_i.obj
 0002:00005e40       _IID_IPSFactoryBuffer      10034e40     uuid:objidl_i.obj
 0002:00005e50       _IID_IRpcStubBuffer        10034e50     uuid:objidl_i.obj
 0002:00005e60       _IID_IRpcProxyBuffer       10034e60     uuid:objidl_i.obj
 0002:00005e70       _IID_IRpcSyntaxNegotiate   10034e70     uuid:objidl_i.obj
 0002:00005e80       _IID_IRpcChannelBuffer3    10034e80     uuid:objidl_i.obj
 0002:00005e90       _IID_IAsyncRpcChannelBuffer 10034e90     uuid:objidl_i.obj
 0002:00005ea0       _IID_IRpcChannelBuffer2    10034ea0     uuid:objidl_i.obj
 0002:00005eb0       _IID_IRpcChannelBuffer     10034eb0     uuid:objidl_i.obj
 0002:00005ec0       _IID_IMessageFilter        10034ec0     uuid:objidl_i.obj
 0002:00005ed0       _IID_IDataAdviseHolder     10034ed0     uuid:objidl_i.obj
 0002:00005ee0       _IID_IDataObject           10034ee0     uuid:objidl_i.obj
 0002:00005ef0       _IID_AsyncIAdviseSink2     10034ef0     uuid:objidl_i.obj
 0002:00005f00       _IID_IAdviseSink2          10034f00     uuid:objidl_i.obj
 0002:00005f10       _IID_AsyncIAdviseSink      10034f10     uuid:objidl_i.obj
 0002:00005f20       _IID_IAdviseSink           10034f20     uuid:objidl_i.obj
 0002:00005f30       _IID_IRootStorage          10034f30     uuid:objidl_i.obj
 0002:00005f40       _IID_IEnumSTATDATA         10034f40     uuid:objidl_i.obj
 0002:00005f50       _IID_IEnumFORMATETC        10034f50     uuid:objidl_i.obj
 0002:00005f60       _IID_ILockBytes            10034f60     uuid:objidl_i.obj
 0002:00005f70       _IID_IPersistStorage       10034f70     uuid:objidl_i.obj
 0002:00005f80       _IID_IPersistFile          10034f80     uuid:objidl_i.obj
 0002:00005f90       _IID_IStorage              10034f90     uuid:objidl_i.obj
 0002:00005fa0       _IID_IEnumSTATSTG          10034fa0     uuid:objidl_i.obj
 0002:00005fb0       _IID_IStream               10034fb0     uuid:objidl_i.obj
 0002:00005fc0       _IID_ISequentialStream     10034fc0     uuid:objidl_i.obj
 0002:00005fd0       _IID_IEnumString           10034fd0     uuid:objidl_i.obj
 0002:00005fe0       _IID_IROTData              10034fe0     uuid:objidl_i.obj
 0002:00005ff0       _IID_IMoniker              10034ff0     uuid:objidl_i.obj
 0002:00006000       _IID_IPersistStream        10035000     uuid:objidl_i.obj
 0002:00006010       _IID_IPersist              10035010     uuid:objidl_i.obj
 0002:00006020       _IID_IRunningObjectTable   10035020     uuid:objidl_i.obj
 0002:00006030       _IID_IRunnableObject       10035030     uuid:objidl_i.obj
 0002:00006040       _IID_IEnumMoniker          10035040     uuid:objidl_i.obj
 0002:00006050       _IID_IBindCtx              10035050     uuid:objidl_i.obj
 0002:00006060       _IID_IEnumUnknown          10035060     uuid:objidl_i.obj
 0002:00006070       _IID_IInternalUnknown      10035070     uuid:objidl_i.obj
 0002:00006080       _IID_AsyncIMultiQI         10035080     uuid:objidl_i.obj
 0002:00006090       _IID_IMultiQI              10035090     uuid:objidl_i.obj
 0002:000060a0       _IID_IExternalConnection   100350a0     uuid:objidl_i.obj
 0002:000060b0       _IID_IStdMarshalInfo       100350b0     uuid:objidl_i.obj
 0002:000060c0       _IID_IMallocSpy            100350c0     uuid:objidl_i.obj
 0002:000060d0       _IID_IMalloc               100350d0     uuid:objidl_i.obj
 0002:000060e0       _IID_IMarshal2             100350e0     uuid:objidl_i.obj
 0002:000060f0       _IID_IMarshal              100350f0     uuid:objidl_i.obj
 0002:00006130       ??_7type_info@@6B@         10035130     MSVCRT:ti_inst.obj
 0002:00006138       ??_7_AFX_DLL_MODULE_STATE@@6B@ 10035138     mfcs42:dllmodul.obj
 0002:0000613c       _IID_IMediaBuffer          1003513c     dmoguids:dmoguids.obj
 0002:0000614c       _IID_IMediaObject          1003514c     dmoguids:dmoguids.obj
 0002:0000615c       _IID_IEnumDMO              1003515c     dmoguids:dmoguids.obj
 0002:0000616c       _IID_IMediaObjectInPlace   1003516c     dmoguids:dmoguids.obj
 0002:0000617c       _IID_IDMOQualityControl    1003517c     dmoguids:dmoguids.obj
 0002:0000618c       _IID_IDMOVideoOutputOptimizations 1003518c     dmoguids:dmoguids.obj
 0002:0000619c       _IID_IMediaParamInfo       1003519c     dmoguids:dmoguids.obj
 0002:000061ac       _IID_IMediaParams          100351ac     dmoguids:dmoguids.obj
 0002:000061bc       _IID_IDMOWrapperFilter     100351bc     dmoguids:dmoguids.obj
 0002:000061cc       _CLSID_DMOFilterCategory   100351cc     dmoguids:dmoguids.obj
 0002:000061dc       _CLSID_DMOWrapperFilter    100351dc     dmoguids:dmoguids.obj
 0002:000061ec       _DMOCATEGORY_AGC           100351ec     dmoguids:dmoguids.obj
 0002:000061fc       _DMOCATEGORY_AUDIO_NOISE_SUPPRESS 100351fc     dmoguids:dmoguids.obj
 0002:0000620c       _DMOCATEGORY_ACOUSTIC_ECHO_CANCEL 1003520c     dmoguids:dmoguids.obj
 0002:0000621c       _DMOCATEGORY_AUDIO_CAPTURE_EFFECT 1003521c     dmoguids:dmoguids.obj
 0002:0000622c       _DMOCATEGORY_VIDEO_EFFECT  1003522c     dmoguids:dmoguids.obj
 0002:0000623c       _DMOCATEGORY_AUDIO_EFFECT  1003523c     dmoguids:dmoguids.obj
 0002:0000624c       _DMOCATEGORY_VIDEO_ENCODER 1003524c     dmoguids:dmoguids.obj
 0002:0000625c       _DMOCATEGORY_VIDEO_DECODER 1003525c     dmoguids:dmoguids.obj
 0002:0000626c       _DMOCATEGORY_AUDIO_ENCODER 1003526c     dmoguids:dmoguids.obj
 0002:0000627c       _DMOCATEGORY_AUDIO_DECODER 1003527c     dmoguids:dmoguids.obj
 0002:00006290       ??_R1A@?0A@A@type_info@@8  10035290     MSVCRT:ti_inst.obj
 0002:000062a8       ??_R2type_info@@8          100352a8     MSVCRT:ti_inst.obj
 0002:000062b0       ??_R3type_info@@8          100352b0     MSVCRT:ti_inst.obj
 0002:000062c0       ??_R4type_info@@6B@        100352c0     MSVCRT:ti_inst.obj
 0002:000062d8       ??_R1A@?0A@A@CNoTrackObject@@8 100352d8     mfcs42:dllmodul.obj
 0002:000062f0       ??_R1A@?0A@A@AFX_MODULE_STATE@@8 100352f0     mfcs42:dllmodul.obj
 0002:00006308       ??_R1A@?0A@A@_AFX_DLL_MODULE_STATE@@8 10035308     mfcs42:dllmodul.obj
 0002:00006320       ??_R2_AFX_DLL_MODULE_STATE@@8 10035320     mfcs42:dllmodul.obj
 0002:00006330       ??_R3_AFX_DLL_MODULE_STATE@@8 10035330     mfcs42:dllmodul.obj
 0002:00006340       ??_R4_AFX_DLL_MODULE_STATE@@6B@ 10035340     mfcs42:dllmodul.obj
 0002:0000706c       __CT??_R0?AVRTSPError@@@8??0RTSPError@@QAE@ABV0@@Z268 1003606c     HttpAgent.obj
 0002:00007088       __CTA1?AVRTSPError@@       10036088     HttpAgent.obj
 0002:00007090       __TI1?AVRTSPError@@        10036090     HttpAgent.obj
 0002:00007150       __CT??_R0?AVHTTPError@@@8??0HTTPError@@QAE@ABV0@@Z8 10036150     HTTPMessage.obj
 0002:0000716c       __CTA1?AVHTTPError@@       1003616c     HTTPMessage.obj
 0002:00007174       __TI1?AVHTTPError@@        10036174     HTTPMessage.obj
 0002:00008f80       __CT??_R0?AVEncrypted@@@8??0Encrypted@@QAE@ABV0@@Z272 10037f80     RTSPThread.obj
 0002:00008f9c       __CTA2?AVEncrypted@@       10037f9c     RTSPThread.obj
 0002:00008fa8       __TI2?AVEncrypted@@        10037fa8     RTSPThread.obj
 0002:00009ef8       __IMPORT_DESCRIPTOR_WINMM  10038ef8     winmm:WINMM.dll
 0002:00009f0c       __IMPORT_DESCRIPTOR_MSVCRT 10038f0c     MSVCRT:MSVCRT.dll
 0002:00009f20       __IMPORT_DESCRIPTOR_MFC42  10038f20     mfc42:MFC42.DLL
 0002:00009f34       __IMPORT_DESCRIPTOR_KERNEL32 10038f34     kernel32:KERNEL32.dll
 0002:00009f48       __IMPORT_DESCRIPTOR_USER32 10038f48     user32:USER32.dll
 0002:00009f5c       __IMPORT_DESCRIPTOR_GDI32  10038f5c     gdi32:GDI32.dll
 0002:00009f70       __IMPORT_DESCRIPTOR_ADVAPI32 10038f70     advapi32:ADVAPI32.dll
 0002:00009f84       __IMPORT_DESCRIPTOR_ole32  10038f84     ole32:ole32.dll
 0002:00009f98       __IMPORT_DESCRIPTOR_OLEAUT32 10038f98     oleaut32:OLEAUT32.dll
 0002:00009fac       __IMPORT_DESCRIPTOR_WSOCK32 10038fac     wsock32:WSOCK32.dll
 0002:00009fc0       __IMPORT_DESCRIPTOR_MSVCP60 10038fc0     msvcprt:MSVCP60.dll
 0002:00009fd4       __IMPORT_DESCRIPTOR_WININET 10038fd4     Wininet:WININET.dll
 0002:00009fe8       __IMPORT_DESCRIPTOR_VERSION 10038fe8     version:VERSION.dll
 0002:00009ffc       __IMPORT_DESCRIPTOR_RPCRT4 10038ffc     Rpcrt4:RPCRT4.dll
 0002:0000a010       __IMPORT_DESCRIPTOR_WS2_32 10039010     ws2_32:WS2_32.dll
 0002:0000a024       __NULL_IMPORT_DESCRIPTOR   10039024     winmm:WINMM.dll
 0003:00000000       ?DEVICE_TYPE_TITLE@?%F:\MyProjects\ICSStreamNetSource\2008-01-04-02 -   TimePerFrame    \filter\ConfigManager.cpp207689448@@3PAPBDA 1003b000     ConfigManager.obj
 0003:0000000c       ??_C@_08EHHB@?$FLbuzzer?$FN?$AA@ 1003b00c     ConfigManager.obj
 0003:00000018       ??_C@_08GDCG@?$FLsensor?$FN?$AA@ 1003b018     ConfigManager.obj
 0003:00000024       ??_C@_07PBDF@?$FLrelay?$FN?$AA@ 1003b024     ConfigManager.obj
 0003:0000002c       ??_C@_0O@PFHM@?1active_x?4htm?$AA@ 1003b02c     ConfigManager.obj
 0003:0000003c       ??_C@_0N@IOGG@bandwidth?5?$CFd?$AA@ 1003b03c     ConfigManager.obj
 0003:0000004c       ??_C@_0L@MBIO@camName?5?$CFs?$AA@ 1003b04c     ConfigManager.obj
 0003:00000058       ??_C@_0BA@KMFI@videoSize?5?$CFd?5?$CFd?$AA@ 1003b058     ConfigManager.obj
 0003:00000068       ??_C@_0BB@PADO@restoreVideoSize?$AA@ 1003b068     ConfigManager.obj
 0003:0000007c       ??_C@_09IKFL@bandwidth?$AA@ 1003b07c     ConfigManager.obj
 0003:00000088       ??_C@_07HLIN@current?$AA@  1003b088     ConfigManager.obj
 0003:00000090       ??_C@_0BB@GGJC@?1active_band?4txt?$AA@ 1003b090     ConfigManager.obj
 0003:000000a4       ??_C@_07CEHD@camName?$AA@  1003b0a4     ConfigManager.obj
 0003:000000ac       ??_C@_0BE@NFNG@?1active_camName?4txt?$AA@ 1003b0ac     ConfigManager.obj
 0003:000000c0       ??_C@_0O@OCNH@?1mac_addr?4txt?$AA@ 1003b0c0     ConfigManager.obj
 0003:000000d0       ??_C@_08BOHH@position?$AA@ 1003b0d0     ConfigManager.obj
 0003:000000dc       ??_C@_01PKAG@?3?$AA@       1003b0dc     ConfigManager.obj
 0003:000000e0       ??_C@_0BD@MKLJ@?1position_name?4txt?$AA@ 1003b0e0     ConfigManager.obj
 0003:000000f4       ??_C@_0BF@EMIB@?1position_name?$CFd?4txt?$AA@ 1003b0f4     ConfigManager.obj
 0003:0000010c       ??_C@_02PHBM@on?$AA@       1003b10c     ConfigManager.obj
 0003:00000110       ??_C@_06KOLM@sensor?$AA@   1003b110     ConfigManager.obj
 0003:00000118       ??_C@_07IHHA@enabled?$AA@  1003b118     ConfigManager.obj
 0003:00000120       ??_C@_02PIMC@?$AN?6?$AA@   1003b120     ConfigManager.obj
 0003:00000124       ??_C@_01KHLB@?$FL?$AA@     1003b124     ConfigManager.obj
 0003:00000128       ??_C@_0BB@FKMI@?1device_name?4txt?$AA@ 1003b128     ConfigManager.obj
 0003:0000013c       ??_C@_0BE@IPMO@?1active_x_basic?4txt?$AA@ 1003b13c     ConfigManager.obj
 0003:00000150       ??_C@_08HEGA@md5?9sess?$AA@ 1003b150     digcalc.obj
 0003:0000015c       ??_C@_08OMAD@auth?9int?$AA@ 1003b15c     digcalc.obj
 0003:00000168       ??_C@_0O@LCLJ@172?416?477?4190?$AA@ 1003b168     fICSStream.obj
 0003:00000178       ??_C@_0BA@FJG@210?4104?4239?4119?$AA@ 1003b178     fICSStream.obj
 0003:00000188       ??_C@_0BK@DGDD@savio410vpn?4net?9video?4net?$AA@ 1003b188     fICSStream.obj
 0003:000001a4       ??_C@_1BE@MOBO@?$AAV?$AAi?$AAd?$AAe?$AAo?$AA?5?$AAO?$AAu?$AAt?$AA?$AA@ 1003b1a4     fICSStream.obj
 0003:000001b8       ??_R0?AVRTSPError@@@8      1003b1b8     fICSStream.obj
 0003:000001d0       ??_C@_0CK@JOHH@Unsupported?5camera?5or?5video?5serv@ 1003b1d0     fICSStream.obj
 0003:000001fc       ??_C@_1BE@CIGF@?$AAA?$AAu?$AAd?$AAi?$AAo?$AA?5?$AAO?$AAu?$AAt?$AA?$AA@ 1003b1fc     fICSStream.obj
 0003:00000210       ??_C@_08FIPO@?1ptz?4htm?$AA@ 1003b210     fICSStream.obj
 0003:0000021c       ??_C@_0BD@ODFD@ICTMPEG4Decoder?4ax?$AA@ 1003b21c     fICSStream.obj
 0003:00000230       __GUID_d8ad0f58_5494_4102_97c5_ec798e59bcf4 1003b230     fICSStream.obj
 0003:00000250       __u2a                      1003b250     g711.obj
 0003:000002d0       __a2u                      1003b2d0     g711.obj
 0003:00000518       ??_C@_0BE@KCG@Connection?3?5close?$AN?6?$AA@ 1003b518     HttpAgent.obj
 0003:0000052c       ??_C@_09HBJF@icsstream?$AA@ 1003b52c     HttpAgent.obj
 0003:00000538       ??_C@_04PHMF@POST?$AA@     1003b538     HttpAgent.obj
 0003:00000540       ??_C@_03HLIC@GET?$AA@      1003b540     HttpAgent.obj
 0003:00000544       ??_C@_0BE@NIJC@Connection?3?5Close?$AN?6?$AA@ 1003b544     HttpAgent.obj
 0003:00000558       ??_C@_06LGGD@Host?3?5?$AA@ 1003b558     HttpAgent.obj
 0003:00000560       ??_C@_0BG@CLBO@User?9Agent?3?5icsview?$AN?6?$AA@ 1003b560     HttpAgent.obj
 0003:00000578       ??_C@_03BODK@?$CC?$AN?6?$AA@ 1003b578     HttpAgent.obj
 0003:0000057c       ??_C@_0O@IHGC@?$CC?0?5response?$DN?$CC?$AA@ 1003b57c     HttpAgent.obj
 0003:0000058c       ??_C@_0L@JKFL@?0?5cnonce?$DN?$CC?$AA@ 1003b58c     HttpAgent.obj
 0003:00000598       ??_C@_06OAEF@?$CC?0?5nc?$DN?$AA@ 1003b598     HttpAgent.obj
 0003:000005a0       ??_C@_0L@MHD@?$CC?0?5nonce?$DN?$CC?$AA@ 1003b5a0     HttpAgent.obj
 0003:000005ac       ??_C@_08LHCA@?$CC?0?5uri?$DN?$CC?$AA@ 1003b5ac     HttpAgent.obj
 0003:000005b8       ??_C@_0P@EHLH@?$CC?0?5Algorithm?$DN?$CC?$AA@ 1003b5b8     HttpAgent.obj
 0003:000005c8       ??_C@_08BLNH@?$CC?0?5qop?$DN?$CC?$AA@ 1003b5c8     HttpAgent.obj
 0003:000005d4       ??_C@_0L@IMNI@?$CC?0?5realm?$DN?$CC?$AA@ 1003b5d4     HttpAgent.obj
 0003:000005e0       ??_C@_0CB@DLKL@Authorization?3?5Digest?5username?$DN?$CC@ 1003b5e0     HttpAgent.obj
 0003:00000604       ??_C@_03EAH@MD5?$AA@       1003b604     HttpAgent.obj
 0003:00000608       ??_C@_08CGAM@00000001?$AA@ 1003b608     HttpAgent.obj
 0003:00000614       ??_C@_0L@BFAH@HTTP?11?41?$AN?6?$AA@ 1003b614     HttpAgent.obj
 0003:00000620       ??_C@_01FCOA@?5?$AA@       1003b620     HttpAgent.obj
 0003:00000624       ??_C@_01KMAE@?0?$AA@       1003b624     HttpAgent.obj
 0003:00000628       ??_C@_01HMO@?$CC?$AA@      1003b628     HttpAgent.obj
 0003:0000062c       ??_C@_06MGAJ@nonce?$DN?$AA@ 1003b62c     HttpAgent.obj
 0003:00000634       ??_C@_04NNKC@qop?$DN?$AA@  1003b634     HttpAgent.obj
 0003:0000063c       ??_C@_06GNEE@realm?$DN?$AA@ 1003b63c     HttpAgent.obj
 0003:00000644       ??_C@_0BB@MJCO@WWW?9Authenticate?$AA@ 1003b644     HttpAgent.obj
 0003:00000658       ??_C@_04EJJ@HTTP?$AA@      1003b658     HTTPMessage.obj
 0003:00000660       ??_R0?AVHTTPError@@@8      1003b660     HTTPMessage.obj
 0003:00000678       ??_C@_03NNMA@1?40?$AA@     1003b678     HTTPMessage.obj
 0003:0000067c       ??_C@_03HHFH@1?41?$AA@     1003b67c     HTTPMessage.obj
 0003:00000680       ??_C@_02CLHN@?5?7?$AA@     1003b680     HTTPResponse.obj
 0003:00000684       ??_C@_04BHJK@?6?$CFs?6?$AA@ 1003b684     HTTPResponse.obj
 0003:0000068c       ??_C@_07OEOL@?$CFs?3?5?$CFs?6?$AA@ 1003b68c     HTTPResponse.obj
 0003:00000694       ??_C@_0BA@ICFM@RESPONSE?5?$CFd?5?$CFs?6?$AA@ 1003b694     HTTPResponse.obj
 0003:000006a4       ??_C@_06MJBA@STATIC?$AA@   1003b6a4     ICSPtzControlPage.obj
 0003:000006ac       ??_C@_0BN@BMHI@PTZ?5Control?5is?5not?5supported?$AA@ 1003b6ac     ICSPtzControlPage.obj
 0003:000006cc       ??_C@_0P@HOOF@Internal?5Error?$AA@ 1003b6cc     ICSPtzControlPage.obj
 0003:000006dc       ??_C@_0BK@PCH@The?5Filter?5is?5not?5running?$AA@ 1003b6dc     ICSPtzControlPage.obj
 0003:000006f8       ??_C@_0BF@LMG@Run?5the?5Filter?5first?$AA@ 1003b6f8     ICSPtzControlPage.obj
 0003:00000710       ??_C@_0L@NGEJ@MS?5PGothic?$AA@ 1003b710     ICSPtzControlPage.obj
 0003:0000071c       __GUID_56a86895_0ad4_11ce_b03a_0020af0ba770 1003b71c     ICSPtzControlPage.obj
 0003:0000072c       ?g_Templates@@3PAVCFactoryTemplate@@A 1003b72c     ICSStream.obj
 0003:00000768       ?g_cTemplates@@3HA         1003b768     ICSStream.obj
 0003:0000076c       ??_C@_1CK@NLFJ@?$AAI?$AAC?$AAS?$AA?5?$AAP?$AAT?$AAZ?$AA?5?$AAC?$AAo?$AAn?$AAt?$AAr?$AAo?$AAl?$AA?5?$AAP?$AAa?$AAg?$AAe@ 1003b76c     ICSStream.obj
 0003:00000798       ??_C@_1DC@BDKB@?$AAI?$AAC?$AAS?$AA?5?$AAS?$AAt?$AAr?$AAe?$AAa?$AAm?$AA?5?$AAP?$AAr?$AAo?$AAp?$AAe?$AAr?$AAt?$AAy?$AA?5@ 1003b798     ICSStream.obj
 0003:000007d0       ??_C@_1EC@LLCD@?$AAI?$AAC?$AAS?$AA?5?$AAN?$AAe?$AAt?$AAw?$AAo?$AAr?$AAk?$AA?5?$AAS?$AAt?$AAr?$AAe?$AAa?$AAm?$AA?5?$AAS@ 1003b7d0     ICSStream.obj
 0003:00000814       ??_C@_1M@EGCM@?$AAI?$AAn?$AAp?$AAu?$AAt?$AA?$AA@ 1003b814     ICSStream.obj
 0003:00000820       ??_C@_1O@JFCO@?$AAO?$AAu?$AAt?$AAp?$AAu?$AAt?$AA?$AA@ 1003b820     ICSStream.obj
 0003:00000830       ??_C@_0BJ@CMP@?2StringFileInfo?2?$CF08lx?2?$CFs?$AA@ 1003b830     ICSStreamPropertyPage.obj
 0003:0000084c       ??_C@_0M@EOAE@FileVersion?$AA@ 1003b84c     ICSStreamPropertyPage.obj
 0003:00000858       ??_C@_0BJ@KCFH@?2VarFileInfo?2Translation?$AA@ 1003b858     ICSStreamPropertyPage.obj
 0003:00000874       ??_C@_01PCFE@?2?$AA@       1003b874     ICSStreamPropertyPage.obj
 0003:00000878       __GUID_db4f25de_dff4_4240_8f95_0d805d7be1f7 1003b878     ICSStreamPropertyPage.obj
 0003:00000888       ??_C@_0L@HJFA@Version?5?3?5?$AA@ 1003b888     ICSStreamPropertyPage.obj
 0003:00000894       ??_C@_01FBMM@4?$AA@        1003b894     ICSStreamPropertyPage.obj
 0003:00000898       ??_C@_01ECJ@3?$AA@         1003b898     ICSStreamPropertyPage.obj
 0003:0000089c       ??_C@_01KOLO@2?$AA@        1003b89c     ICSStreamPropertyPage.obj
 0003:000008a0       ??_C@_01FBAH@1?$AA@        1003b8a0     ICSStreamPropertyPage.obj
 0003:000008a4       ??_C@_0BG@IEFF@Stop?5the?5filter?5first?$AA@ 1003b8a4     ICSStreamPropertyPage.obj
 0003:000008bc       __GUID_0377624f_fbe4_47e1_8f21_b51eadf5f985 1003b8bc     ICSStreamPropertyPage.obj
 0003:000008d0       ??_C@_0IB@ENJK@The?5ICTMPEG4Decoder?5Filter?5is?5to@ 1003b8d0     ICSStreamPropertyPage.obj
 0003:00000954       ??_C@_0BP@LEFL@The?5filter?5graph?5is?5running?4?4?4?$AA@ 1003b954     ICSStreamPropertyPage.obj
 0003:00000974       ??_C@_0CA@JKFM@IcsStream?5Network?5Source?5Filter?$AA@ 1003b974     ICSStreamPropertyPage.obj
 0003:000009d8       ??_C@_03PIMC@?$AA?$AN?6?$AA@ 1003b9d8     PTZController.obj
 0003:000009dc       ??_C@_07NOCE@Ch?$CFd?5z?$CL?$AA@ 1003b9dc     PTZController.obj
 0003:000009e4       ??_C@_07CBFG@Ch?$CFd?5z?9?$AA@ 1003b9e4     PTZController.obj
 0003:000009ec       ??_C@_09HICH@Ch?$CFd?5z?$CL?$CFd?$AA@ 1003b9ec     PTZController.obj
 0003:000009f8       ??_C@_09JEFA@Ch?$CFd?5z?9?$CFd?$AA@ 1003b9f8     PTZController.obj
 0003:00000a04       ??_C@_0O@HBHP@Ch?$CFd?5contZ?$CL?$CFd?$AA@ 1003ba04     PTZController.obj
 0003:00000a14       ??_C@_0O@JNAI@Ch?$CFd?5contZ?9?$CFd?$AA@ 1003ba14     PTZController.obj
 0003:00000a24       ??_C@_0M@EKHM@Ch?$CFd?5stopZ?$CL?$AA@ 1003ba24     PTZController.obj
 0003:00000a30       ??_C@_0M@LFAO@Ch?$CFd?5stopZ?9?$AA@ 1003ba30     PTZController.obj
 0003:00000a3c       ??_C@_0M@NFDF@Ch?$CFd?5left?$CFd?$AA@ 1003ba3c     PTZController.obj
 0003:00000a48       ??_C@_0N@BKH@Ch?$CFd?5right?$CFd?$AA@ 1003ba48     PTZController.obj
 0003:00000a58       ??_C@_0BA@NLFM@Ch?$CFd?5contLeft?$CFd?$AA@ 1003ba58     PTZController.obj
 0003:00000a68       ??_C@_0BB@IEKJ@Ch?$CFd?5contRight?$CFd?$AA@ 1003ba68     PTZController.obj
 0003:00000a7c       ??_C@_0O@EDGF@Ch?$CFd?5stopLeft?$AA@ 1003ba7c     PTZController.obj
 0003:00000a8c       ??_C@_0P@GKHG@Ch?$CFd?5stopRight?$AA@ 1003ba8c     PTZController.obj
 0003:00000a9c       ??_C@_09GKEH@Ch?$CFd?5up?$CFd?$AA@ 1003ba9c     PTZController.obj
 0003:00000aa8       ??_C@_0M@FMNF@Ch?$CFd?5down?$CFd?$AA@ 1003baa8     PTZController.obj
 0003:00000ab4       ??_C@_0O@GDBP@Ch?$CFd?5contUp?$CFd?$AA@ 1003bab4     PTZController.obj
 0003:00000ac4       ??_C@_0BA@FCLM@Ch?$CFd?5contDown?$CFd?$AA@ 1003bac4     PTZController.obj
 0003:00000ad4       ??_C@_0M@DJMM@Ch?$CFd?5stopUp?$AA@ 1003bad4     PTZController.obj
 0003:00000ae0       ??_C@_0O@IJII@Ch?$CFd?5stopDown?$AA@ 1003bae0     PTZController.obj
 0003:00000af0       ??_C@_0N@NJFC@Ch?$CFd?5autoPan?$AA@ 1003baf0     PTZController.obj
 0003:00000b00       ??_C@_0O@GKHN@Ch?$CFd?5autoTilt?$AA@ 1003bb00     PTZController.obj
 0003:00000b10       ??_C@_0BB@HPJP@Ch?$CFd?5autoPanTilt?$AA@ 1003bb10     PTZController.obj
 0003:00000b24       ??_C@_0P@KAAO@Ch?$CFd?5autoFocus?$AA@ 1003bb24     PTZController.obj
 0003:00000b34       ??_C@_0P@DPGH@Ch?$CFd?5limitLeft?$AA@ 1003bb34     PTZController.obj
 0003:00000b44       ??_C@_0BA@IOAK@Ch?$CFd?5limitRight?$AA@ 1003bb44     PTZController.obj
 0003:00000b54       ??_C@_0N@JGN@Ch?$CFd?5limitUp?$AA@ 1003bb54     PTZController.obj
 0003:00000b64       ??_C@_0P@PFIK@Ch?$CFd?5limitDown?$AA@ 1003bb64     PTZController.obj
 0003:00000b74       ??_C@_0O@PEJD@Ch?$CFd?5preset?$CFd?$AA@ 1003bb74     PTZController.obj
 0003:00000b84       ??_C@_0BC@GHMB@Ch?$CFd?5movePreset?$CFd?$AA@ 1003bb84     PTZController.obj
 0003:00000b98       ??_C@_0O@JJOE@Ch?$CFd?5focusFar?$AA@ 1003bb98     PTZController.obj
 0003:00000ba8       ??_C@_0P@JPHL@Ch?$CFd?5focusNear?$AA@ 1003bba8     PTZController.obj
 0003:00000bb8       ??_C@_0BA@DFIJ@Ch?$CFd?5focusFar?$CFd?$AA@ 1003bbb8     PTZController.obj
 0003:00000bc8       ??_C@_0BB@FGKE@Ch?$CFd?5focusNear?$CFd?$AA@ 1003bbc8     PTZController.obj
 0003:00000bdc       ??_C@_0BE@HHDM@Ch?$CFd?5contFocusFar?$CFd?$AA@ 1003bbdc     PTZController.obj
 0003:00000bf0       ??_C@_0BF@DPOG@Ch?$CFd?5contFocusNear?$CFd?$AA@ 1003bbf0     PTZController.obj
 0003:00000c08       ??_C@_0BC@PGDJ@Ch?$CFd?5stopFocusFar?$AA@ 1003bc08     PTZController.obj
 0003:00000c1c       ??_C@_0BD@OOBE@Ch?$CFd?5stopFocusNear?$AA@ 1003bc1c     PTZController.obj
 0003:00000c30       ??_C@_0N@LDIE@Ch?$CFd?5powerOn?$AA@ 1003bc30     PTZController.obj
 0003:00000c40       ??_C@_0O@CALF@Ch?$CFd?5powerOff?$AA@ 1003bc40     PTZController.obj
 0003:00000c50       ??_C@_0M@PMJF@Ch?$CFd?5irisOn?$AA@ 1003bc50     PTZController.obj
 0003:00000c5c       ??_C@_0N@LGPK@Ch?$CFd?5irisOff?$AA@ 1003bc5c     PTZController.obj
 0003:00000c6c       ??_C@_0O@JEBK@Ch?$CFd?5irisAuto?$AA@ 1003bc6c     PTZController.obj
 0003:00000c7c       ??_C@_0BA@GIII@Ch?$CFd?5panSpeed?$CFd?$AA@ 1003bc7c     PTZController.obj
 0003:00000c8c       ??_C@_0BB@KKHL@Ch?$CFd?5tiltSpeed?$CFd?$AA@ 1003bc8c     PTZController.obj
 0003:00000ca0       ??_C@_0BB@GMMD@Ch?$CFd?5zoomSpeed?$CFd?$AA@ 1003bca0     PTZController.obj
 0003:00000cb4       ??_C@_0BA@MNIL@Ch?$CFd?5position?$CFd?$AA@ 1003bcb4     PTZController.obj
 0003:00000cc4       ??_C@_0BE@LPNN@Ch?$CFd?5movePosition?$CFd?$AA@ 1003bcc4     PTZController.obj
 0003:00000cd8       ??_C@_0BH@IIBL@Ch?$CFd?5positionName?$CFd?0?$CFs?$AA@ 1003bcd8     PTZController.obj
 0003:00000cf0       ??_C@_0P@ONPL@Ch?$CFd?5custom?3?$CFs?$AA@ 1003bcf0     PTZController.obj
 0003:00000d00       ??_C@_0BE@CCIL@Ch?$CFd?5updatePosition?$AA@ 1003bd00     PTZController.obj
 0003:00000d14       ??_C@_0BL@NHBL@Ch?$CFd?5moveCenter?$CFd?0?$CFd?0?$CFd?0?$CFd?$AA@ 1003bd14     PTZController.obj
 0003:00000d30       ??_C@_0BA@CBIJ@?1ext_device?4htm?$AA@ 1003bd30     PTZController.obj
 0003:00000d40       ??_C@_0BL@NBGI@Ch?$CFd?5extDevice?$CF02d?9?$CF02d?5?$CFs?$AA@ 1003bd40     PTZController.obj
 0003:00000d5c       ??_C@_03OJPB@off?$AA@      1003bd5c     PTZController.obj
 0003:00000d60       ??_C@_0BA@GLMD@Ch?$CFd?5resetLimit?$AA@ 1003bd60     PTZController.obj
 0003:00000d70       ??_C@_0BA@DBAA@Ch?$CFd?5returnHome?$AA@ 1003bd70     PTZController.obj
 0003:00000d80       ??_C@_0N@MAGG@Ch?$CFd?5nightOn?$AA@ 1003bd80     PTZController.obj
 0003:00000d90       ??_C@_0O@BAMG@Ch?$CFd?5nightOff?$AA@ 1003bd90     PTZController.obj
 0003:00000de0       ??_C@_04BCMP@?$CFd?5?5?$AA@ 1003bde0     RTPThread.obj
 0003:00000de8       ??_C@_02LEMH@RR?$AA@       1003bde8     RTPThread.obj
 0003:00000dec       ?delim@@3PBDB              1003bdec     RTSPClient.obj
 0003:00000df0       ??_C@_04FGNA@?$AN?6?$AN?6?$AA@ 1003bdf0     RTSPClient.obj
 0003:00000df8       ??_C@_08NOAE@HTTP?11?41?$AA@ 1003bdf8     RTSPClient.obj
 0003:00000e04       ??_C@_0O@OEGL@SET_PARAMETER?$AA@ 1003be04     RTSPClient.obj
 0003:00000e14       ??_C@_08OLFP@TEARDOWN?$AA@ 1003be14     RTSPClient.obj
 0003:00000e20       ??_C@_05JKKC@PAUSE?$AA@    1003be20     RTSPClient.obj
 0003:00000e28       ??_C@_04BCHB@PLAY?$AA@     1003be28     RTSPClient.obj
 0003:00000e30       ??_C@_05GDNH@SETUP?$AA@    1003be30     RTSPClient.obj
 0003:00000e38       ??_C@_08FBJG@DESCRIBE?$AA@ 1003be38     RTSPClient.obj
 0003:00000e44       ??_C@_09KIMP@RTSP?11?40?$AA?$AA@ 1003be44     RTSPClient.obj
 0003:00000e50       ??_C@_03BCPI@?$AN?6?$AA?$AA@ 1003be50     RTSPClient.obj
 0003:00000e54       ??_C@_0L@FKNG@STATE_INIT?$AA@ 1003be54     RTSPClient.obj
 0003:00000e60       ??_C@_0M@MCKP@STATE_READY?$AA@ 1003be60     RTSPClient.obj
 0003:00000e6c       ??_C@_0O@BJGO@STATE_PLAYING?$AA@ 1003be6c     RTSPClient.obj
 0003:00000e7c       ??_C@_09KFOL@STATE_MAX?$AA@ 1003be7c     RTSPClient.obj
 0003:00000e88       ??_C@_0BC@CCKP@rtsp?3?1?1?$CFs?3?$CFd?1ch?$CFd?$AA@ 1003be88     RTSPClient.obj
 0003:00000e9c       ??_C@_0P@FPOC@rtsp?3?1?1?$CFs?1ch?$CFd?$AA@ 1003be9c     RTSPClient.obj
 0003:00000eac       ??_C@_08BOCH@?$CFs?3?5?$CFs?$AN?6?$AA@ 1003beac     RTSPClient.obj
 0003:00000eb8       ??_C@_0L@HMIC@?$CFs?5?$CFs?5?$CFs?$AN?6?$AA@ 1003beb8     RTSPClient.obj
 0003:00000ec4       ??_C@_0BA@KPIM@?1rtsp_over_http?$AA@ 1003bec4     RTSPClient.obj
 0003:00000ed4       ??_C@_0O@NIME@Cache?9Control?$AA@ 1003bed4     RTSPClient.obj
 0003:00000ee4       ??_C@_06EHF@Pragma?$AA@    1003bee4     RTSPClient.obj
 0003:00000eec       ??_C@_08NFFA@no?9cache?$AA@ 1003beec     RTSPClient.obj
 0003:00000ef8       ??_C@_06LNGI@Accept?$AA@   1003bef8     RTSPClient.obj
 0003:00000f00       ??_C@_0BN@KOIE@application?1x?9rtsp?9tunnelled?$AA@ 1003bf00     RTSPClient.obj
 0003:00000f20       ??_C@_0BA@JHJD@x?9sessioncookie?$AA@ 1003bf20     RTSPClient.obj
 0003:00000f30       ??_C@_0N@HKBC@Content?9Type?$AA@ 1003bf30     RTSPClient.obj
 0003:00000f40       ??_C@_08PCPP@If?9Match?$AA@ 1003bf40     RTSPClient.obj
 0003:00000f4c       ??_C@_08ECCJ@?$CC?$CFs?3?3?$CFs?$CC?$AA@ 1003bf4c     RTSPClient.obj
 0003:00000f58       ??_C@_0BA@FCAB@application?1sdp?$AA@ 1003bf58     RTSPClient.obj
 0003:00000f68       ??_C@_07PJLF@Session?$AA@  1003bf68     RTSPClient.obj
 0003:00000f70       ??_C@_0BE@ENAG@RTP?1AVP?1TCP?$DLunicast?$AA@ 1003bf70     RTSPClient.obj
 0003:00000f84       ??_C@_0BA@PFOI@Accept?9Encoding?$AA@ 1003bf84     RTSPClient.obj
 0003:00000f94       ??_C@_05ONBE@?$CFd?0?$CFs?$AA@ 1003bf94     RTSPClient.obj
 0003:00000f9c       ??_C@_09JHGB@Transport?$AA@ 1003bf9c     RTSPClient.obj
 0003:00000fa8       ??_C@_0CC@BPFE@RTP?1AVP?$DLunicast?$DLclient_port?$DN?$CFd?9?$CF@ 1003bfa8     RTSPClient.obj
 0003:00000fcc       ??_C@_08CPOB@rtp?9info?$AA@ 1003bfcc     RTSPClient.obj
 0003:00000fd8       ??_C@_03HBHA@TCP?$AA@      1003bfd8     RTSPClient.obj
 0003:00000fdc       ??_C@_03ECDD@UDP?$AA@      1003bfdc     RTSPClient.obj
 0003:00000fe0       ??_C@_03GMPP@AVP?$AA@      1003bfe0     RTSPClient.obj
 0003:00000fe4       ??_C@_03JGPL@RTP?$AA@      1003bfe4     RTSPClient.obj
 0003:00000fe8       ??_C@_01FDLN@?1?$AA@       1003bfe8     RTSPClient.obj
 0003:00000fec       ??_C@_01FAJB@?$DL?$AA@     1003bfec     RTSPClient.obj
 0003:00000ff0       ??_C@_01GJD@?9?$AA@        1003bff0     RTSPClient.obj
 0003:00000ff4       ??_C@_0M@DANK@server_port?$AA@ 1003bff4     RTSPClient.obj
 0003:00001000       ??_C@_01KPOD@?$DN?$AA@     1003c000     RTSPClient.obj
 0003:00001004       ??_C@_07HEIN@unicast?$AA@  1003c004     RTSPClient.obj
 0003:0000100c       ??_C@_0M@PMOB@interleaved?$AA@ 1003c00c     RTSPClient.obj
 0003:00001018       ??_C@_04OEKM@ssrc?$AA@     1003c018     RTSPClient.obj
 0003:00001020       ??_C@_0L@EHCH@CSeq?3?5?$CFd?$AN?6?$AA@ 1003c020     RTSPClient.obj
 0003:0000102c       ??_C@_0O@GEOF@Session?3?5?$CFs?$AN?6?$AA@ 1003c02c     RTSPClient.obj
 0003:0000103c       ??_C@_05PGBO@?5?$CFs?$AN?6?$AA@ 1003c03c     RTSPClient.obj
 0003:00001044       ??_C@_05MNON@?1Ch?$CFd?$AA@ 1003c044     RTSPClient.obj
 0003:0000104c       ??_C@_03FELK@?1?$CFs?$AA@  1003c04c     RTSPClient.obj
 0003:00001050       ??_C@_03JDAJ@?3?$CFd?$AA@  1003c050     RTSPClient.obj
 0003:00001054       ??_C@_0L@KGMN@?$CFs?5rtsp?3?1?1?$AA@ 1003c054     RTSPClient.obj
 0003:00001060       ??_C@_0P@MJAN@Content?9Length?$AA@ 1003c060     RTSPClient.obj
 0003:00001070       ??_C@_01PILM@$?$AA@        1003c070     RTSPClient.obj
 0003:00001074       ??_C@_04KOLI@CSeq?$AA@     1003c074     RTSPClient.obj
 0003:0000107c       ??_C@_0BE@HOBE@?1start_post_channel?$AA@ 1003c07c     RTSPClient.obj
 0003:00001090       ??_C@_05IPPF@65535?$AA@    1003c090     RTSPClient.obj
 0003:00001098       ??_C@_03LLPA@EOF?$AA@      1003c098     RTSPClient.obj
 0003:0000109c       ??_C@_05ENFA@RTSP?$AA?$AA@ 1003c09c     RTSPMessage.obj
 0003:000010a4       ??_C@_08FNDI@REDIRECT?$AA@ 1003c0a4     RTSPRequest.obj
 0003:000010b0       ??_C@_0O@LHAC@GET_PARAMETER?$AA@ 1003c0b0     RTSPRequest.obj
 0003:000010c0       ??_C@_08NJPI@ANNOUNCE?$AA@ 1003c0c0     RTSPRequest.obj
 0003:000010cc       ??_C@_07MKIM@OPTIONS?$AA@  1003c0cc     RTSPRequest.obj
 0003:000010d4       ??_C@_06KODB@PARAM?3?$AA@  1003c0d4     RTSPRequest.obj
 0003:000010dc       ?m_fsm_handlers@RTSPThread@@1PAP81@AE_NPAUParams@1@@ZA 1003c0dc     RTSPThread.obj
 0003:0000110c       ??_R0?AVCException@@@8     1003c10c     RTSPThread.obj
 0003:00001128       ??_R0?AVEncrypted@@@8      1003c128     RTSPThread.obj
 0003:00001140       ??_C@_09KGJG@?1main?4htm?$AA@ 1003c140     RTSPThread.obj
 0003:0000114c       ??_C@_07LLNA@?$CFs?3?5s?$CFs?$AA@ 1003c14c     RTSPThread.obj
 0003:00001154       ??_C@_03NGMJ@IP4?$AA@      1003c154     SDP.obj
 0003:00001158       ??_C@_01PJCK@?4?$AA@       1003c158     SDP.obj
 0003:0000115c       ??_C@_02EOJ@ua?$AA@        1003c15c     SDP.obj
 0003:00001160       ??_C@_02DPNN@vd?$AA@       1003c160     SDP.obj
 0003:00001164       ??_C@_02MDEI@vs?$AA@       1003c164     SDP.obj
 0003:00001168       ??_C@_01PGHN@o?$AA@        1003c168     SDP.obj
 0003:0000116c       ??_C@_02PBF@ba?$AA@        1003c16c     SDP.obj
 0003:00001170       ??_C@_02BDNF@tk?$AA@       1003c170     SDP.obj
 0003:00001174       ??_C@_02OBFC@pt?$AA@       1003c174     SDP.obj
 0003:00001178       ??_C@_01FNLH@a?$AA@        1003c178     SDP.obj
 0003:0000117c       ??_C@_04JFDK@ndtp?$AA@     1003c17c     SDP.obj
 0003:00001184       ??_C@_04GLLM@http?$AA@     1003c184     SDP.obj
 0003:0000118c       ??_C@_05CIIC@https?$AA@    1003c18c     SDP.obj
 0003:00001194       ??_C@_02JGKN@vt?$AA@       1003c194     SDP.obj
 0003:00001198       ??_C@_02GCCD@ar?$AA@       1003c198     SDP.obj
 0003:0000119c       ??_C@_02GJNP@vr?$AA@       1003c19c     SDP.obj
 0003:000011a0       ??_C@_02DHG@fr?$AA@        1003c1a0     SDP.obj
 0003:000011a4       ??_C@_08NBDB@dstshift?$AA@ 1003c1a4     SDP.obj
 0003:000011b0       ??_C@_07DMKC@dstdate?$AA@  1003c1b0     SDP.obj
 0003:000011b8       ??_C@_02MKAO@am?$AA@       1003c1b8     SDP.obj
 0003:000011bc       ??_C@_02CNAP@df?$AA@       1003c1bc     SDP.obj
 0003:000011c0       ??_C@_02NCLG@de?$AA@       1003c1c0     SDP.obj
 0003:000011c4       ??_C@_02IELE@ds?$AA@       1003c1c4     SDP.obj
 0003:000011c8       ??_C@_02MILE@as?$AA@       1003c1c8     SDP.obj
 0003:000011cc       ??_C@_02FKDL@bc?$AA@       1003c1cc     SDP.obj
 0003:000011d0       ??_C@_02DFLH@an?$AA@       1003c1d0     SDP.obj
 0003:000011d4       ??_C@_02GBME@ac?$AA@       1003c1d4     SDP.obj
 0003:000011d8       ??_C@_02DOEL@vn?$AA@       1003c1d8     SDP.obj
 0003:000011dc       ??_C@_02GKDI@vc?$AA@       1003c1dc     SDP.obj
 0003:000011e0       ??_C@_01IJJ@c?$AA@         1003c1e0     SDP.obj
 0003:000011e4       ??_C@_02BJLP@ca?$AA@       1003c1e4     SDP.obj
 0003:000011e8       ??_C@_01IFC@f?$AA@         1003c1e8     SDP.obj
 0003:000011ec       ??_C@_01FOFA@p?$AA@        1003c1ec     SDP.obj
 0003:000011f0       ??_C@_07IPKB@control?$AA@  1003c1f0     SDP.obj
 0003:000011f8       ??_C@_06OFJH@video?$DN?$AA@ 1003c1f8     SDP.obj
 0003:00001200       ??_C@_06MPA@audio?$DN?$AA@ 1003c200     SDP.obj
 0003:00001208       ??_C@_04NOKC@num?$DN?$AA@  1003c208     SDP.obj
 0003:00001210       ??_C@_02GIEM@?0?5?$AA@     1003c210     SDP.obj
 0003:00001214       ??_C@_06PHBF@clear?3?$AA@  1003c214     SDP.obj
 0003:0000121c       ?GUID_ATLVer30@ATL@@3U_GUID@@A 1003c21c     StdAfx.obj
 0003:0000122c       ??_C@_0BG@HOLJ@?$HM?$HM1?$HM?$HM?$CFs?$HM?$HM0x?$CF?48X?$HM?$HM?$CFd?$HM?$HM?$AA@ 1003c22c     StdAfx.obj
 0003:00001244       ??_C@_09FCOK@127?40?40?41?$AA@ 1003c244     StdAfx.obj
 0003:00001250       ??_C@_0L@CPAD@udp_printf?$AA@ 1003c250     StdAfx.obj
 0003:0000125c       ??_C@_0L@BBFG@gDebug?4dll?$AA@ 1003c25c     StdAfx.obj
 0003:00001268       ??_C@_0BC@JILB@?$HM?$HM2?$HM?$HM?$CFs?$HM?$HM0x?$CF?48X?$HM?$HM?$AA@ 1003c268     StdAfx.obj
 0003:0000127c       ??_C@_0P@DOFI@CoInitializeEx?$AA@ 1003c27c     strmbase:wxutil.obj
 0003:0000128c       ??_C@_09FFJE@ole32?4dll?$AA@ 1003c28c     strmbase:wxutil.obj
 0003:00001298       ??_C@_02MECO@?$CFd?$AA@    1003c298     strmbase:wxutil.obj
 0003:0000129c       ??_C@_09FLBC@AMUnblock?$AA@ 1003c29c     strmbase:wxutil.obj
 0003:000012a8       ??_C@_1BA@DCBD@?$AAU?$AAN?$AAK?$AAN?$AAO?$AAW?$AAN?$AA?$AA@ 1003c2a8     strmbase:amvideo.obj
 0003:000012b8       ??_C@_07CNPM@UNKNOWN?$AA@  1003c2b8     strmbase:amvideo.obj
 0003:000012c0       ??_C@_1BA@IOOM@?$AAO?$AAv?$AAe?$AAr?$AAl?$AAa?$AAy?$AA?$AA@ 1003c2c0     strmbase:amvideo.obj
 0003:000012d0       ??_C@_07PJFM@Overlay?$AA@  1003c2d0     strmbase:amvideo.obj
 0003:000012d8       ??_C@_1BA@FGLJ@?$AAA?$AAR?$AAG?$AAB?$AA?5?$AA3?$AA2?$AA?$AA@ 1003c2d8     strmbase:amvideo.obj
 0003:000012e8       ??_C@_07INFG@ARGB?532?$AA@ 1003c2e8     strmbase:amvideo.obj
 0003:000012f0       ??_C@_1O@DMAN@?$AAR?$AAG?$AAB?$AA?5?$AA3?$AA2?$AA?$AA@ 1003c2f0     strmbase:amvideo.obj
 0003:00001300       ??_C@_06GKL@RGB?532?$AA@   1003c300     strmbase:amvideo.obj
 0003:00001308       ??_C@_1O@HAFP@?$AAR?$AAG?$AAB?$AA?5?$AA2?$AA4?$AA?$AA@ 1003c308     strmbase:amvideo.obj
 0003:00001318       ??_C@_06OPHD@RGB?524?$AA@  1003c318     strmbase:amvideo.obj
 0003:00001320       ??_C@_1CC@JJDB@?$AAR?$AAG?$AAB?$AA?5?$AA5?$AA5?$AA5?$AA?5?$AA?$CI?$AA1?$AA6?$AA?5?$AAb?$AAi?$AAt?$AA?$CJ?$AA?$AA@ 1003c320     strmbase:amvideo.obj
 0003:00001344       ??_C@_0BB@NKKN@RGB?5555?5?$CI16?5bit?$CJ?$AA@ 1003c344     strmbase:amvideo.obj
 0003:00001358       ??_C@_1CC@LNFO@?$AAR?$AAG?$AAB?$AA?5?$AA5?$AA6?$AA5?$AA?5?$AA?$CI?$AA1?$AA6?$AA?5?$AAb?$AAi?$AAt?$AA?$CJ?$AA?$AA@ 1003c358     strmbase:amvideo.obj
 0003:0000137c       ??_C@_0BB@OFDN@RGB?5565?5?$CI16?5bit?$CJ?$AA@ 1003c37c     strmbase:amvideo.obj
 0003:00001390       ??_C@_1M@MAD@?$AAR?$AAG?$AAB?$AA?5?$AA8?$AA?$AA@ 1003c390     strmbase:amvideo.obj
 0003:0000139c       ??_C@_05LOIN@RGB?58?$AA@   1003c39c     strmbase:amvideo.obj
 0003:000013a4       ??_C@_1BA@MAJN@?$AAR?$AAG?$AAB?$AA?5?$AAV?$AAG?$AAA?$AA?$AA@ 1003c3a4     strmbase:amvideo.obj
 0003:000013b4       ??_C@_07PODM@RGB?5VGA?$AA@ 1003c3b4     strmbase:amvideo.obj
 0003:000013bc       ??_C@_1BO@HBIB@?$AAR?$AAG?$AAB?$AA?5?$AAM?$AAo?$AAn?$AAo?$AAc?$AAh?$AAr?$AAo?$AAm?$AAe?$AA?$AA@ 1003c3bc     strmbase:amvideo.obj
 0003:000013dc       ??_C@_0P@NGAD@RGB?5Monochrome?$AA@ 1003c3dc     strmbase:amvideo.obj
 0003:000013ec       ??_C@_0P@CMNN@ThreadingModel?$AA@ 1003c3ec     strmbase:dllsetup.obj
 0003:000013fc       ??_C@_03GJHJ@?$CFls?$AA@   1003c3fc     strmbase:dllsetup.obj
 0003:00001400       ??_C@_09IPFI@CLSID?2?$CFls?$AA@ 1003c400     strmbase:dllsetup.obj
 0003:0000140c       ??_C@_19EPG@?$AAB?$AAo?$AAt?$AAh?$AA?$AA@ 1003c40c     strmbase:dllsetup.obj
 0003:00001418       ??_C@_1BO@OGKK@?$AAI?$AAn?$AAp?$AAr?$AAo?$AAc?$AAS?$AAe?$AAr?$AAv?$AAe?$AAr?$AA3?$AA2?$AA?$AA@ 1003c418     strmbase:dllsetup.obj
 0003:00001438       ??_C@_0BH@LAMO@DirectDrawEnumerateExA?$AA@ 1003c438     strmbase:videoctl.obj
 0003:00001450       ??_C@_0BF@MNK@DirectDrawEnumerateA?$AA@ 1003c450     strmbase:videoctl.obj
 0003:00001468       ??_C@_0BB@DLNE@DirectDrawCreate?$AA@ 1003c468     strmbase:videoctl.obj
 0003:0000147c       ??_C@_09LLMO@DDRAW?4DLL?$AA@ 1003c47c     strmbase:videoctl.obj
 0003:00001490       ??_R0?AVtype_info@@@8      1003c490     MSVCRT:ti_inst.obj
 0003:000014b0       __pRawDllMain              1003c4b0     mfcs42:dllmodul.obj
 0003:000014b8       ??_R0?AVCNoTrackObject@@@8 1003c4b8     mfcs42:dllmodul.obj
 0003:000014d8       ??_R0?AVAFX_MODULE_STATE@@@8 1003c4d8     mfcs42:dllmodul.obj
 0003:000014f8       ??_R0?AV_AFX_DLL_MODULE_STATE@@@8 1003c4f8     mfcs42:dllmodul.obj
 0003:00001520       ?_in_buffer@?1??unpack_input@@9@9 1003c520     audioutil.obj
 0003:00001524       ?_in_bits@?1??unpack_input@@9@9 1003c524     audioutil.obj
 0003:00001528       ??_C@_00A@?$AA@            1003c528     ConfigManager.obj
 0003:0000152c       __GUID_00000000_0000_0000_0000_000000000000 1003c52c     fICSStream_op.obj
 0003:00001540       ?m_csHttpAgent@HttpAgent@@1VCCritSec@@A 1003c540     HttpAgent.obj
 0003:00001560       ?m_thread_buffer@HttpAgent@@1VQueue@@A 1003c560     HttpAgent.obj
 0003:000015a0       ?m_hHttpThread@HttpAgent@@1PAXA 1003c5a0     HttpAgent.obj
 0003:000015a4       ?m_hHttpThreadRunEvent@HttpAgent@@1PAXA 1003c5a4     HttpAgent.obj
 0003:000015a8       ?m_hHttpThreadExitEvent@HttpAgent@@1PAXA 1003c5a8     HttpAgent.obj
 0003:000015ac       ?m_nInstances@HttpAgent@@1JA 1003c5ac     HttpAgent.obj
 0003:000015b0       ?m_csInitalized@HttpAgent@@1_NA 1003c5b0     HttpAgent.obj
 0003:000015bc       ?msg_count@@3HA            1003c5bc     RTPThread.obj
 0003:00001de0       ?ATL_CREATE_OBJECT@CComApartment@ATL@@2IA 1003cde0     StdAfx.obj
 0003:00001de4       ?m_libid@CComModule@ATL@@2U_GUID@@A 1003cde4     StdAfx.obj
 0003:00001df4       ?_pModule@ATL@@3PAVCComModule@1@A 1003cdf4     StdAfx.obj
 0003:00001f08       ?g_hInst@@3PAUHINSTANCE__@@A 1003cf08     strmbase:dllentry.obj
 0003:00001f0c       ?g_amPlatform@@3KA         1003cf0c     strmbase:dllentry.obj
 0003:00001f10       ?g_osInfo@@3U_OSVERSIONINFOA@@A 1003cf10     strmbase:dllentry.obj
 0003:00001fa4       ?m_cLocked@CClassFactory@@0HA 1003cfa4     strmbase:dllentry.obj
 0003:00001fa8       ?hlibOLEAut32@@3PAUHINSTANCE__@@A 1003cfa8     strmbase:combase.obj
 0003:00001fac       ?m_cObjects@CBaseObject@@0JA 1003cfac     strmbase:combase.obj
 0003:00001fbc       __afxForceEXCLUDE          1003cfbc     mfcs42:nolib.obj
 0003:00003064       __afxForceUSRDLL           1003e064     mfcs42:dllmodul.obj
 0003:00003068       __afxForceSTDAFX           1003e068     mfcs42:stdafx.obj
 0003:0000306c       ___onexitend               1003e06c     <common>
 0003:00003070       ___onexitbegin             1003e070     <common>

 entry point at        0001:0001fe10

 Static symbols

 0001:0001e680       _$E251                     1001f680 f   utils.obj
 0001:0001e690       _$E248                     1001f690 f   utils.obj
 0001:0001e6a0       _$E250                     1001f6a0 f   utils.obj
 0001:0001e6b0       _$E249                     1001f6b0 f   utils.obj
 0001:0001e6c0       _$E257                     1001f6c0 f   utils.obj
 0001:0001e6d0       _$E254                     1001f6d0 f   utils.obj
 0001:0001e6e0       _$E256                     1001f6e0 f   utils.obj
 0001:0001e6f0       _$E255                     1001f6f0 f   utils.obj
 0001:0001d180       _$E230                     1001e180 f   StdAfx.obj
 0001:0001d190       _$E227                     1001e190 f   StdAfx.obj
 0001:0001d1a0       _$E229                     1001e1a0 f   StdAfx.obj
 0001:0001d1b0       _$E228                     1001e1b0 f   StdAfx.obj
 0001:0001d220       ?print_out@@YAXPBDZZ       1001e220 f   StdAfx.obj
 0001:0000fb20       ?Transform@@YAXPAK0@Z      10010b20 f   PPPMD5.obj
 0001:0000f280       ?init_get_bits@@YAXPAUGetBitContext@@PBEH@Z 10010280 f   mpeg4_hdr_decode.obj
 0001:0000f2b0       ?skip_bits@@YAXPAUGetBitContext@@H@Z 100102b0 f   mpeg4_hdr_decode.obj
 0001:0000f2c0       ?flv_h263_decode_picture_header@@YAHPAUMPEG4context@@PAUGetBitContext@@@Z 100102c0 f   mpeg4_hdr_decode.obj
 0001:0000f3d0       ?get_bits@@YAIPAUGetBitContext@@H@Z 100103d0 f   mpeg4_hdr_decode.obj
 0001:0000f430       ?get_bits_long@@YAIPAUGetBitContext@@H@Z 10010430 f   mpeg4_hdr_decode.obj
 0001:0000f600       ?decode_vol_header@@YAHPAUMPEG4context@@PAUGetBitContext@@@Z 10010600 f   mpeg4_hdr_decode.obj
 0001:00009b70       _$E231                     1000ab70 f   HttpAgent.obj
 0001:00009b80       _$E227                     1000ab80 f   HttpAgent.obj
 0001:00009b90       _$E230                     1000ab90 f   HttpAgent.obj
 0001:00009ba0       _$E228                     1000aba0 f   HttpAgent.obj
 0001:00009bc0       _$E236                     1000abc0 f   HttpAgent.obj
 0001:00009bd0       _$E233                     1000abd0 f   HttpAgent.obj
 0001:00009be0       _$E235                     1000abe0 f   HttpAgent.obj
 0001:00009bf0       _$E234                     1000abf0 f   HttpAgent.obj
 0001:000093d0       _fmult                     1000a3d0 f   g72x.obj
 0001:00009460       _quan                      1000a460 f   g72x.obj
 0001:00008d50       _search                    10009d50 f   g711.obj
 0001:000296b0       ?ArrayUnwindFilter@@YAHPAU_EXCEPTION_POINTERS@@@Z 1002a6b0 f   MSVCRT:ehvecdtr.obj
 0001:00029c42       _$E375                     1002ac42 f   mfcs42:dllmodul.obj
 0001:00029c4c       _$E372                     1002ac4c f   mfcs42:dllmodul.obj
 0001:00029c94       _$E374                     1002ac94 f   mfcs42:dllmodul.obj
 0001:00029ca0       _$E373                     1002aca0 f   mfcs42:dllmodul.obj
